

Microchip MPLAB XC8 Assembler V2.05 build -831301201 
                                                                                               Fri May 10 11:33:56 2019

Microchip MPLAB XC8 C Compiler v2.05 (Free license) build 20181220022703 Og1 
     1                           	processor	18F25K22
     2                           	fnconf	rparam,??,?,0
     3                           	opt	pw 120
     4                           	opt	flic
     5                           	psect	nvBANK0,global,class=BANK0,space=1,delta=1,lowdata,noexec
     6                           	psect	mediumconst,global,reloc=2,class=MEDIUMCONST,delta=1,noexec
     7                           	psect	cinit,global,reloc=2,class=CODE,delta=1
     8                           	psect	bssCOMRAM,global,class=COMRAM,space=1,delta=1,noexec
     9                           	psect	bssBANK0,global,class=BANK0,space=1,delta=1,lowdata,noexec
    10                           	psect	bssBANK1,global,class=BANK1,space=1,delta=1,lowdata,noexec
    11                           	psect	cstackBANK1,global,class=BANK1,space=1,delta=1,noexec
    12                           	psect	cstackBANK0,global,class=BANK0,space=1,delta=1,noexec
    13                           	psect	cstackCOMRAM,global,class=COMRAM,space=1,delta=1,noexec
    14                           	psect	text0,global,reloc=2,class=CODE,delta=1
    15                           	psect	text1,global,reloc=2,class=CODE,delta=1
    16                           	psect	text2,global,reloc=2,class=CODE,delta=1,group=2
    17                           	psect	text3,global,reloc=2,class=CODE,delta=1
    18                           	psect	text4,global,reloc=2,class=CODE,delta=1
    19                           	psect	text5,global,reloc=2,class=CODE,delta=1
    20                           	psect	text6,global,reloc=2,class=CODE,delta=1,group=2
    21                           	psect	text7,global,reloc=2,class=CODE,delta=1,group=1
    22                           	psect	text8,global,reloc=2,class=CODE,delta=1,group=1
    23                           	psect	text9,global,reloc=2,class=CODE,delta=1
    24                           	psect	text10,global,reloc=2,class=CODE,delta=1
    25                           	psect	text11,global,reloc=2,class=CODE,delta=1,group=2
    26                           	psect	text12,global,reloc=2,class=CODE,delta=1,group=2
    27                           	psect	text13,global,reloc=2,class=CODE,delta=1,group=2
    28                           	psect	text14,global,reloc=2,class=CODE,delta=1
    29                           	psect	text15,global,reloc=2,class=CODE,delta=1
    30                           	psect	text16,global,reloc=2,class=CODE,delta=1
    31                           	psect	text17,global,reloc=2,class=CODE,delta=1
    32                           	psect	text18,global,reloc=2,class=CODE,delta=1
    33                           	psect	text19,global,reloc=2,class=CODE,delta=1
    34                           	psect	text20,global,reloc=2,class=CODE,delta=1
    35                           	psect	text21,global,reloc=2,class=CODE,delta=1
    36                           	psect	text22,global,reloc=2,class=CODE,delta=1
    37                           	psect	text23,global,reloc=2,class=CODE,delta=1
    38                           	psect	text24,global,reloc=2,class=CODE,delta=1
    39                           	psect	text25,global,reloc=2,class=CODE,delta=1
    40                           	psect	text26,global,reloc=2,class=CODE,delta=1
    41                           	psect	text27,global,reloc=2,class=CODE,delta=1
    42                           	psect	text28,global,reloc=2,class=CODE,delta=1
    43                           	psect	text29,global,reloc=2,class=CODE,delta=1
    44                           	psect	text30,global,reloc=2,class=CODE,delta=1
    45                           	psect	text31,global,reloc=2,class=CODE,delta=1,inline
    46                           	psect	text32,global,reloc=2,class=CODE,delta=1
    47                           	psect	text33,global,reloc=2,class=CODE,delta=1
    48                           	psect	text34,global,reloc=2,class=CODE,delta=1
    49                           	psect	intcode,global,reloc=2,class=CODE,delta=1
    50                           	psect	text36,global,reloc=2,class=CODE,delta=1
    51                           	psect	text37,global,reloc=2,class=CODE,delta=1
    52                           	psect	text38,global,reloc=2,class=CODE,delta=1
    53                           	psect	text39,global,reloc=2,class=CODE,delta=1
    54                           	psect	intsave_regs,global,class=BIGRAM,space=1,delta=1,noexec
    55                           	psect	rparam,global,class=COMRAM,space=1,delta=1,noexec
    56                           	psect	temp,global,ovrld,common,class=COMRAM,space=1,delta=1
    57  0000                     
    58                           ; Version 2.05
    59                           ; Generated 20/12/2018 GMT
    60                           ; 
    61                           ; Copyright © 2018, Microchip Technology Inc. and its subsidiaries ("Microchip")
    62                           ; All rights reserved.
    63                           ; 
    64                           ; This software is developed by Microchip Technology Inc. and its subsidiaries ("Microch
      +                          ip").
    65                           ; 
    66                           ; Redistribution and use in source and binary forms, with or without modification, are
    67                           ; permitted provided that the following conditions are met:
    68                           ; 
    69                           ;     1. Redistributions of source code must retain the above copyright notice, this lis
      +                          t of
    70                           ;        conditions and the following disclaimer.
    71                           ; 
    72                           ;     2. Redistributions in binary form must reproduce the above copyright notice, this 
      +                          list
    73                           ;        of conditions and the following disclaimer in the documentation and/or other
    74                           ;        materials provided with the distribution.
    75                           ; 
    76                           ;     3. Microchip's name may not be used to endorse or promote products derived from th
      +                          is
    77                           ;        software without specific prior written permission.
    78                           ; 
    79                           ; THIS SOFTWARE IS PROVIDED BY MICROCHIP "AS IS" AND ANY EXPRESS OR IMPLIED WARRANTIES,
    80                           ; INCLUDING, BUT NOT LIMITED TO, THE IMPLIED WARRANTIES OF MERCHANTABILITY AND FITNESS F
      +                          OR
    81                           ; PURPOSE ARE DISCLAIMED.  IN NO EVENT SHALL MICROCHIP BE LIABLE FOR ANY DIRECT, INDIREC
      +                          T,
    82                           ; INCIDENTAL, SPECIAL, EXEMPLARY, OR CONSEQUENTIAL DAMAGES (INCLUDING BUT NOT LIMITED TO
    83                           ; PROCUREMENT OF SUBSTITUTE GOODS OR SERVICES; LOSS OF USE, DATA OR PROFITS; OR BUSINESS
    84                           ; INTERRUPTION) HOWSOEVER CAUSED AND ON ANY THEORY OF LIABILITY, WHETHER IN CONTRACT, ST
      +                          RICT
    85                           ; LIABILITY, OR TORT (INCLUDING NEGLIGENCE OR OTHERWISE) ARISING IN ANY WAY OUT OF THE U
      +                          SE OF
    86                           ; THIS SOFTWARE, EVEN IF ADVISED OF THE POSSIBILITY OF SUCH DAMAGE.
    87                           ; 
    88                           ; 
    89                           ; Code-generator required, PIC18F25K22 Definitions
    90                           ; 
    91                           ; SFR Addresses
    92  0000                     
    93 ;; Function _EUSART1_DefaultFramingErrorHandler is unused but had its address taken
    94  0000                     
    95 ;; Function _EUSART1_DefaultOverrunErrorHandler is unused but had its address taken
    96  0000                     
    97 ;; Function _EUSART1_DefaultErrorHandler is unused but had its address taken
    98  0000                     
    99                           	psect	nvBANK0
   100  0000B0                     __pnvBANK0:
   101                           	opt callstack 0
   102  0000B0                     _EUSART1_ErrorHandler:
   103                           	opt callstack 0
   104  0000B0                     	ds	2
   105  0000B2                     _EUSART1_OverrunErrorHandler:
   106                           	opt callstack 0
   107  0000B2                     	ds	2
   108  0000B4                     _EUSART1_FramingErrorHandler:
   109                           	opt callstack 0
   110  0000B4                     	ds	2
   111  0000                     _ANSELA	set	3896
   112  0000                     _ANSELB	set	3897
   113  0000                     _ANSELC	set	3898
   114  0000                     _LATBbits	set	3978
   115  0000                     _LATCbits	set	3979
   116  0000                     _SSP1BUF	set	4041
   117  0000                     _SSP1CON2bits	set	4037
   118  0000                     _SSP1CON1bits	set	4038
   119  0000                     _SSP1ADD	set	4040
   120  0000                     _SSP1CON3	set	4043
   121  0000                     _SSP1CON1	set	4038
   122  0000                     _SSP1STAT	set	4039
   123  0000                     _PIE1bits	set	3997
   124  0000                     _PIR2bits	set	4001
   125  0000                     _PIE2bits	set	4000
   126  0000                     _RCONbits	set	4048
   127  0000                     _INTCONbits	set	4082
   128  0000                     _INTCON2bits	set	4081
   129  0000                     _WPUB	set	3937
   130  0000                     _TRISC	set	3988
   131  0000                     _TRISB	set	3987
   132  0000                     _TRISA	set	3986
   133  0000                     _LATC	set	3979
   134  0000                     _LATB	set	3978
   135  0000                     _LATA	set	3977
   136  0000                     _OSCTUNE	set	3995
   137  0000                     _OSCCON2	set	4050
   138  0000                     _OSCCON	set	4051
   139  0000                     _TXREG1	set	4013
   140  0000                     _RCREG1	set	4014
   141  0000                     _RCSTA1bits	set	4011
   142  0000                     _TXSTA1bits	set	4012
   143  0000                     _PIR1bits	set	3998
   144  0000                     _SPBRGH1	set	4016
   145  0000                     _SPBRG1	set	4015
   146  0000                     _TXSTA1	set	4012
   147  0000                     _RCSTA1	set	4011
   148  0000                     _BAUDCON1	set	4024
   149                           
   150                           	psect	mediumconst
   151  007CF6                     __pmediumconst:
   152                           	opt callstack 0
   153  007CF6  00                 	db	0
   154  007CF7                     STR_1:
   155  007CF7  2F                 	db	47
   156  007CF8  2F                 	db	47
   157  007CF9  2F                 	db	47
   158  007CFA  2F                 	db	47
   159  007CFB  2F                 	db	47
   160  007CFC  2F                 	db	47
   161  007CFD  2F                 	db	47
   162  007CFE  2F                 	db	47
   163  007CFF  2F                 	db	47
   164  007D00  2F                 	db	47
   165  007D01  2F                 	db	47
   166  007D02  2F                 	db	47
   167  007D03  2F                 	db	47
   168  007D04  2F                 	db	47
   169  007D05  2F                 	db	47
   170  007D06  2F                 	db	47
   171  007D07  2F                 	db	47
   172  007D08  2F                 	db	47
   173  007D09  2F                 	db	47
   174  007D0A  2F                 	db	47
   175  007D0B  2F                 	db	47
   176  007D0C  2F                 	db	47
   177  007D0D  2F                 	db	47
   178  007D0E  2F                 	db	47
   179  007D0F  2F                 	db	47
   180  007D10  2F                 	db	47
   181  007D11  2F                 	db	47
   182  007D12  2F                 	db	47
   183  007D13  2F                 	db	47
   184  007D14  2F                 	db	47
   185  007D15  2F                 	db	47
   186  007D16  2F                 	db	47
   187  007D17  2F                 	db	47
   188  007D18  2F                 	db	47
   189  007D19  2F                 	db	47
   190  007D1A  2F                 	db	47
   191  007D1B  2F                 	db	47
   192  007D1C  2F                 	db	47
   193  007D1D  2F                 	db	47
   194  007D1E  2F                 	db	47
   195  007D1F  2F                 	db	47
   196  007D20  2F                 	db	47
   197  007D21  2F                 	db	47
   198  007D22  2F                 	db	47
   199  007D23  2F                 	db	47
   200  007D24  2F                 	db	47
   201  007D25  2F                 	db	47
   202  007D26  2F                 	db	47
   203  007D27  2F                 	db	47
   204  007D28  2F                 	db	47
   205  007D29  2F                 	db	47
   206  007D2A  2F                 	db	47
   207  007D2B  2F                 	db	47
   208  007D2C  2F                 	db	47
   209  007D2D  2F                 	db	47
   210  007D2E  2F                 	db	47
   211  007D2F  2F                 	db	47
   212  007D30  2F                 	db	47
   213  007D31  2F                 	db	47
   214  007D32  2F                 	db	47
   215  007D33  2F                 	db	47
   216  007D34  2F                 	db	47
   217  007D35  2F                 	db	47
   218  007D36  2F                 	db	47
   219  007D37  2F                 	db	47
   220  007D38  2F                 	db	47
   221  007D39  2F                 	db	47
   222  007D3A  2F                 	db	47
   223  007D3B  2F                 	db	47
   224  007D3C  2F                 	db	47
   225  007D3D  2F                 	db	47
   226  007D3E  2F                 	db	47
   227  007D3F  2F                 	db	47
   228  007D40  2F                 	db	47
   229  007D41  2F                 	db	47
   230  007D42  2F                 	db	47
   231  007D43  2F                 	db	47
   232  007D44  2F                 	db	47
   233  007D45  2F                 	db	47
   234  007D46  2F                 	db	47
   235  007D47  0A                 	db	10
   236  007D48  00                 	db	0
   237  007D49                     STR_11:
   238  007D49  2F                 	db	47
   239  007D4A  2F                 	db	47
   240  007D4B  2F                 	db	47
   241  007D4C  2F                 	db	47
   242  007D4D  2F                 	db	47
   243  007D4E  2F                 	db	47
   244  007D4F  2F                 	db	47
   245  007D50  2F                 	db	47
   246  007D51  20                 	db	32
   247  007D52  20                 	db	32
   248  007D53  20                 	db	32
   249  007D54  20                 	db	32
   250  007D55  20                 	db	32
   251  007D56  20                 	db	32
   252  007D57  53                 	db	83	;'S'
   253  007D58  65                 	db	101	;'e'
   254  007D59  74                 	db	116	;'t'
   255  007D5A  20                 	db	32
   256  007D5B  50                 	db	80	;'P'
   257  007D5C  6F                 	db	111	;'o'
   258  007D5D  69                 	db	105	;'i'
   259  007D5E  6E                 	db	110	;'n'
   260  007D5F  74                 	db	116	;'t'
   261  007D60  20                 	db	32
   262  007D61  3C                 	db	60	;'<'
   263  007D62  73                 	db	115	;'s'
   264  007D63  3E                 	db	62	;'>'
   265  007D64  20                 	db	32
   266  007D65  28                 	db	40
   267  007D66  73                 	db	115	;'s'
   268  007D67  63                 	db	99	;'c'
   269  007D68  61                 	db	97	;'a'
   270  007D69  6C                 	db	108	;'l'
   271  007D6A  65                 	db	101	;'e'
   272  007D6B  64                 	db	100	;'d'
   273  007D6C  20                 	db	32
   274  007D6D  66                 	db	102	;'f'
   275  007D6E  72                 	db	114	;'r'
   276  007D6F  6F                 	db	111	;'o'
   277  007D70  6D                 	db	109	;'m'
   278  007D71  20                 	db	32
   279  007D72  31                 	db	49	;'1'
   280  007D73  20                 	db	32
   281  007D74  74                 	db	116	;'t'
   282  007D75  6F                 	db	111	;'o'
   283  007D76  20                 	db	32
   284  007D77  39                 	db	57	;'9'
   285  007D78  29                 	db	41
   286  007D79  20                 	db	32
   287  007D7A  20                 	db	32
   288  007D7B  20                 	db	32
   289  007D7C  0A                 	db	10
   290  007D7D  00                 	db	0
   291  007D7E                     STR_7:
   292  007D7E  2F                 	db	47
   293  007D7F  2F                 	db	47
   294  007D80  2F                 	db	47
   295  007D81  2F                 	db	47
   296  007D82  2F                 	db	47
   297  007D83  2F                 	db	47
   298  007D84  2F                 	db	47
   299  007D85  2F                 	db	47
   300  007D86  20                 	db	32
   301  007D87  20                 	db	32
   302  007D88  20                 	db	32
   303  007D89  50                 	db	80	;'P'
   304  007D8A  6C                 	db	108	;'l'
   305  007D8B  65                 	db	101	;'e'
   306  007D8C  61                 	db	97	;'a'
   307  007D8D  73                 	db	115	;'s'
   308  007D8E  65                 	db	101	;'e'
   309  007D8F  20                 	db	32
   310  007D90  63                 	db	99	;'c'
   311  007D91  68                 	db	104	;'h'
   312  007D92  6F                 	db	111	;'o'
   313  007D93  6F                 	db	111	;'o'
   314  007D94  73                 	db	115	;'s'
   315  007D95  65                 	db	101	;'e'
   316  007D96  20                 	db	32
   317  007D97  66                 	db	102	;'f'
   318  007D98  6F                 	db	111	;'o'
   319  007D99  6C                 	db	108	;'l'
   320  007D9A  6C                 	db	108	;'l'
   321  007D9B  6F                 	db	111	;'o'
   322  007D9C  77                 	db	119	;'w'
   323  007D9D  69                 	db	105	;'i'
   324  007D9E  6E                 	db	110	;'n'
   325  007D9F  67                 	db	103	;'g'
   326  007DA0  20                 	db	32
   327  007DA1  63                 	db	99	;'c'
   328  007DA2  6F                 	db	111	;'o'
   329  007DA3  6D                 	db	109	;'m'
   330  007DA4  6D                 	db	109	;'m'
   331  007DA5  61                 	db	97	;'a'
   332  007DA6  6E                 	db	110	;'n'
   333  007DA7  64                 	db	100	;'d'
   334  007DA8  3A                 	db	58	;':'
   335  007DA9  20                 	db	32
   336  007DAA  20                 	db	32
   337  007DAB  20                 	db	32
   338  007DAC  0A                 	db	10
   339  007DAD  00                 	db	0
   340  007DAE                     STR_13:
   341  007DAE  2F                 	db	47
   342  007DAF  2F                 	db	47
   343  007DB0  2F                 	db	47
   344  007DB1  2F                 	db	47
   345  007DB2  2F                 	db	47
   346  007DB3  2F                 	db	47
   347  007DB4  2F                 	db	47
   348  007DB5  2F                 	db	47
   349  007DB6  20                 	db	32
   350  007DB7  20                 	db	32
   351  007DB8  20                 	db	32
   352  007DB9  20                 	db	32
   353  007DBA  20                 	db	32
   354  007DBB  20                 	db	32
   355  007DBC  53                 	db	83	;'S'
   356  007DBD  70                 	db	112	;'p'
   357  007DBE  65                 	db	101	;'e'
   358  007DBF  65                 	db	101	;'e'
   359  007DC0  64                 	db	100	;'d'
   360  007DC1  20                 	db	32
   361  007DC2  44                 	db	68	;'D'
   362  007DC3  65                 	db	101	;'e'
   363  007DC4  63                 	db	99	;'c'
   364  007DC5  72                 	db	114	;'r'
   365  007DC6  65                 	db	101	;'e'
   366  007DC7  61                 	db	97	;'a'
   367  007DC8  73                 	db	115	;'s'
   368  007DC9  65                 	db	101	;'e'
   369  007DCA  20                 	db	32
   370  007DCB  3C                 	db	60	;'<'
   371  007DCC  64                 	db	100	;'d'
   372  007DCD  3E                 	db	62	;'>'
   373  007DCE  20                 	db	32
   374  007DCF  20                 	db	32
   375  007DD0  20                 	db	32
   376  007DD1  0A                 	db	10
   377  007DD2  00                 	db	0
   378  007DD3                     STR_12:
   379  007DD3  2F                 	db	47
   380  007DD4  2F                 	db	47
   381  007DD5  2F                 	db	47
   382  007DD6  2F                 	db	47
   383  007DD7  2F                 	db	47
   384  007DD8  2F                 	db	47
   385  007DD9  2F                 	db	47
   386  007DDA  2F                 	db	47
   387  007DDB  20                 	db	32
   388  007DDC  20                 	db	32
   389  007DDD  20                 	db	32
   390  007DDE  20                 	db	32
   391  007DDF  20                 	db	32
   392  007DE0  20                 	db	32
   393  007DE1  53                 	db	83	;'S'
   394  007DE2  70                 	db	112	;'p'
   395  007DE3  65                 	db	101	;'e'
   396  007DE4  65                 	db	101	;'e'
   397  007DE5  64                 	db	100	;'d'
   398  007DE6  20                 	db	32
   399  007DE7  49                 	db	73	;'I'
   400  007DE8  6E                 	db	110	;'n'
   401  007DE9  63                 	db	99	;'c'
   402  007DEA  72                 	db	114	;'r'
   403  007DEB  65                 	db	101	;'e'
   404  007DEC  61                 	db	97	;'a'
   405  007DED  73                 	db	115	;'s'
   406  007DEE  65                 	db	101	;'e'
   407  007DEF  20                 	db	32
   408  007DF0  3C                 	db	60	;'<'
   409  007DF1  69                 	db	105	;'i'
   410  007DF2  3E                 	db	62	;'>'
   411  007DF3  20                 	db	32
   412  007DF4  20                 	db	32
   413  007DF5  20                 	db	32
   414  007DF6  0A                 	db	10
   415  007DF7  00                 	db	0
   416  007DF8                     STR_14:
   417  007DF8  2F                 	db	47
   418  007DF9  2F                 	db	47
   419  007DFA  2F                 	db	47
   420  007DFB  2F                 	db	47
   421  007DFC  2F                 	db	47
   422  007DFD  2F                 	db	47
   423  007DFE  2F                 	db	47
   424  007DFF  2F                 	db	47
   425  007E00  20                 	db	32
   426  007E01  20                 	db	32
   427  007E02  20                 	db	32
   428  007E03  20                 	db	32
   429  007E04  20                 	db	32
   430  007E05  20                 	db	32
   431  007E06  4B                 	db	75	;'K'
   432  007E07  65                 	db	101	;'e'
   433  007E08  65                 	db	101	;'e'
   434  007E09  70                 	db	112	;'p'
   435  007E0A  20                 	db	32
   436  007E0B  53                 	db	83	;'S'
   437  007E0C  70                 	db	112	;'p'
   438  007E0D  65                 	db	101	;'e'
   439  007E0E  65                 	db	101	;'e'
   440  007E0F  64                 	db	100	;'d'
   441  007E10  20                 	db	32
   442  007E11  3C                 	db	60	;'<'
   443  007E12  6B                 	db	107	;'k'
   444  007E13  3E                 	db	62	;'>'
   445  007E14  20                 	db	32
   446  007E15  20                 	db	32
   447  007E16  20                 	db	32
   448  007E17  0A                 	db	10
   449  007E18  00                 	db	0
   450  007E19                     STR_17:
   451  007E19  57                 	db	87	;'W'
   452  007E1A  41                 	db	65	;'A'
   453  007E1B  52                 	db	82	;'R'
   454  007E1C  4E                 	db	78	;'N'
   455  007E1D  49                 	db	73	;'I'
   456  007E1E  4E                 	db	78	;'N'
   457  007E1F  47                 	db	71	;'G'
   458  007E20  20                 	db	32
   459  007E21  67                 	db	103	;'g'
   460  007E22  65                 	db	101	;'e'
   461  007E23  6E                 	db	110	;'n'
   462  007E24  65                 	db	101	;'e'
   463  007E25  72                 	db	114	;'r'
   464  007E26  61                 	db	97	;'a'
   465  007E27  74                 	db	116	;'t'
   466  007E28  65                 	db	101	;'e'
   467  007E29  64                 	db	100	;'d'
   468  007E2A  20                 	db	32
   469  007E2B  70                 	db	112	;'p'
   470  007E2C  72                 	db	114	;'r'
   471  007E2D  6F                 	db	111	;'o'
   472  007E2E  67                 	db	103	;'g'
   473  007E2F  72                 	db	114	;'r'
   474  007E30  65                 	db	101	;'e'
   475  007E31  73                 	db	115	;'s'
   476  007E32  73                 	db	115	;'s'
   477  007E33  20                 	db	32
   478  007E34  68                 	db	104	;'h'
   479  007E35  6F                 	db	111	;'o'
   480  007E36  6C                 	db	108	;'l'
   481  007E37  64                 	db	100	;'d'
   482  007E38  0A                 	db	10
   483  007E39  00                 	db	0
   484  007E3A                     STR_10:
   485  007E3A  2F                 	db	47
   486  007E3B  2F                 	db	47
   487  007E3C  2F                 	db	47
   488  007E3D  2F                 	db	47
   489  007E3E  2F                 	db	47
   490  007E3F  2F                 	db	47
   491  007E40  2F                 	db	47
   492  007E41  2F                 	db	47
   493  007E42  20                 	db	32
   494  007E43  20                 	db	32
   495  007E44  20                 	db	32
   496  007E45  20                 	db	32
   497  007E46  20                 	db	32
   498  007E47  20                 	db	32
   499  007E48  4D                 	db	77	;'M'
   500  007E49  6F                 	db	111	;'o'
   501  007E4A  74                 	db	116	;'t'
   502  007E4B  6F                 	db	111	;'o'
   503  007E4C  72                 	db	114	;'r'
   504  007E4D  20                 	db	32
   505  007E4E  4F                 	db	79	;'O'
   506  007E4F  46                 	db	70	;'F'
   507  007E50  46                 	db	70	;'F'
   508  007E51  20                 	db	32
   509  007E52  3C                 	db	60	;'<'
   510  007E53  66                 	db	102	;'f'
   511  007E54  3E                 	db	62	;'>'
   512  007E55  20                 	db	32
   513  007E56  20                 	db	32
   514  007E57  20                 	db	32
   515  007E58  0A                 	db	10
   516  007E59  00                 	db	0
   517  007E5A                     STR_5:
   518  007E5A  2F                 	db	47
   519  007E5B  2F                 	db	47
   520  007E5C  2F                 	db	47
   521  007E5D  2F                 	db	47
   522  007E5E  2F                 	db	47
   523  007E5F  2F                 	db	47
   524  007E60  2F                 	db	47
   525  007E61  2F                 	db	47
   526  007E62  20                 	db	32
   527  007E63  20                 	db	32
   528  007E64  20                 	db	32
   529  007E65  57                 	db	87	;'W'
   530  007E66  61                 	db	97	;'a'
   531  007E67  72                 	db	114	;'r'
   532  007E68  6E                 	db	110	;'n'
   533  007E69  69                 	db	105	;'i'
   534  007E6A  6E                 	db	110	;'n'
   535  007E6B  67                 	db	103	;'g'
   536  007E6C  20                 	db	32
   537  007E6D  4C                 	db	76	;'L'
   538  007E6E  65                 	db	101	;'e'
   539  007E6F  76                 	db	118	;'v'
   540  007E70  65                 	db	101	;'e'
   541  007E71  6C                 	db	108	;'l'
   542  007E72  3A                 	db	58	;':'
   543  007E73  20                 	db	32
   544  007E74  25                 	db	37
   545  007E75  63                 	db	99	;'c'
   546  007E76  20                 	db	32
   547  007E77  20                 	db	32
   548  007E78  0A                 	db	10
   549  007E79  00                 	db	0
   550  007E7A                     STR_9:
   551  007E7A  2F                 	db	47
   552  007E7B  2F                 	db	47
   553  007E7C  2F                 	db	47
   554  007E7D  2F                 	db	47
   555  007E7E  2F                 	db	47
   556  007E7F  2F                 	db	47
   557  007E80  2F                 	db	47
   558  007E81  2F                 	db	47
   559  007E82  20                 	db	32
   560  007E83  20                 	db	32
   561  007E84  20                 	db	32
   562  007E85  20                 	db	32
   563  007E86  20                 	db	32
   564  007E87  20                 	db	32
   565  007E88  4D                 	db	77	;'M'
   566  007E89  6F                 	db	111	;'o'
   567  007E8A  74                 	db	116	;'t'
   568  007E8B  6F                 	db	111	;'o'
   569  007E8C  72                 	db	114	;'r'
   570  007E8D  20                 	db	32
   571  007E8E  4F                 	db	79	;'O'
   572  007E8F  4E                 	db	78	;'N'
   573  007E90  20                 	db	32
   574  007E91  3C                 	db	60	;'<'
   575  007E92  6F                 	db	111	;'o'
   576  007E93  3E                 	db	62	;'>'
   577  007E94  20                 	db	32
   578  007E95  20                 	db	32
   579  007E96  20                 	db	32
   580  007E97  0A                 	db	10
   581  007E98  00                 	db	0
   582  007E99                     STR_3:
   583  007E99  2F                 	db	47
   584  007E9A  2F                 	db	47
   585  007E9B  2F                 	db	47
   586  007E9C  2F                 	db	47
   587  007E9D  2F                 	db	47
   588  007E9E  2F                 	db	47
   589  007E9F  2F                 	db	47
   590  007EA0  2F                 	db	47
   591  007EA1  20                 	db	32
   592  007EA2  20                 	db	32
   593  007EA3  20                 	db	32
   594  007EA4  53                 	db	83	;'S'
   595  007EA5  65                 	db	101	;'e'
   596  007EA6  74                 	db	116	;'t'
   597  007EA7  20                 	db	32
   598  007EA8  50                 	db	80	;'P'
   599  007EA9  6F                 	db	111	;'o'
   600  007EAA  73                 	db	115	;'s'
   601  007EAB  69                 	db	105	;'i'
   602  007EAC  74                 	db	116	;'t'
   603  007EAD  69                 	db	105	;'i'
   604  007EAE  6F                 	db	111	;'o'
   605  007EAF  6E                 	db	110	;'n'
   606  007EB0  3A                 	db	58	;':'
   607  007EB1  20                 	db	32
   608  007EB2  25                 	db	37
   609  007EB3  64                 	db	100	;'d'
   610  007EB4  20                 	db	32
   611  007EB5  20                 	db	32
   612  007EB6  0A                 	db	10
   613  007EB7  00                 	db	0
   614  007EB8                     STR_21:
   615  007EB8  43                 	db	67	;'C'
   616  007EB9  75                 	db	117	;'u'
   617  007EBA  72                 	db	114	;'r'
   618  007EBB  72                 	db	114	;'r'
   619  007EBC  65                 	db	101	;'e'
   620  007EBD  6E                 	db	110	;'n'
   621  007EBE  74                 	db	116	;'t'
   622  007EBF  20                 	db	32
   623  007EC0  70                 	db	112	;'p'
   624  007EC1  6F                 	db	111	;'o'
   625  007EC2  73                 	db	115	;'s'
   626  007EC3  69                 	db	105	;'i'
   627  007EC4  74                 	db	116	;'t'
   628  007EC5  69                 	db	105	;'i'
   629  007EC6  6F                 	db	111	;'o'
   630  007EC7  6E                 	db	110	;'n'
   631  007EC8  3A                 	db	58	;':'
   632  007EC9  20                 	db	32
   633  007ECA  30                 	db	48	;'0'
   634  007ECB  20                 	db	32
   635  007ECC  0A                 	db	10
   636  007ECD  00                 	db	0
   637  007ECE                     STR_23:
   638  007ECE  43                 	db	67	;'C'
   639  007ECF  75                 	db	117	;'u'
   640  007ED0  72                 	db	114	;'r'
   641  007ED1  72                 	db	114	;'r'
   642  007ED2  65                 	db	101	;'e'
   643  007ED3  6E                 	db	110	;'n'
   644  007ED4  74                 	db	116	;'t'
   645  007ED5  20                 	db	32
   646  007ED6  70                 	db	112	;'p'
   647  007ED7  6F                 	db	111	;'o'
   648  007ED8  73                 	db	115	;'s'
   649  007ED9  69                 	db	105	;'i'
   650  007EDA  74                 	db	116	;'t'
   651  007EDB  69                 	db	105	;'i'
   652  007EDC  6F                 	db	111	;'o'
   653  007EDD  6E                 	db	110	;'n'
   654  007EDE  3A                 	db	58	;':'
   655  007EDF  20                 	db	32
   656  007EE0  31                 	db	49	;'1'
   657  007EE1  20                 	db	32
   658  007EE2  0A                 	db	10
   659  007EE3  00                 	db	0
   660  007EE4                     STR_25:
   661  007EE4  43                 	db	67	;'C'
   662  007EE5  75                 	db	117	;'u'
   663  007EE6  72                 	db	114	;'r'
   664  007EE7  72                 	db	114	;'r'
   665  007EE8  65                 	db	101	;'e'
   666  007EE9  6E                 	db	110	;'n'
   667  007EEA  74                 	db	116	;'t'
   668  007EEB  20                 	db	32
   669  007EEC  70                 	db	112	;'p'
   670  007EED  6F                 	db	111	;'o'
   671  007EEE  73                 	db	115	;'s'
   672  007EEF  69                 	db	105	;'i'
   673  007EF0  74                 	db	116	;'t'
   674  007EF1  69                 	db	105	;'i'
   675  007EF2  6F                 	db	111	;'o'
   676  007EF3  6E                 	db	110	;'n'
   677  007EF4  3A                 	db	58	;':'
   678  007EF5  20                 	db	32
   679  007EF6  32                 	db	50	;'2'
   680  007EF7  20                 	db	32
   681  007EF8  0A                 	db	10
   682  007EF9  00                 	db	0
   683  007EFA                     STR_27:
   684  007EFA  43                 	db	67	;'C'
   685  007EFB  75                 	db	117	;'u'
   686  007EFC  72                 	db	114	;'r'
   687  007EFD  72                 	db	114	;'r'
   688  007EFE  65                 	db	101	;'e'
   689  007EFF  6E                 	db	110	;'n'
   690  007F00  74                 	db	116	;'t'
   691  007F01  20                 	db	32
   692  007F02  70                 	db	112	;'p'
   693  007F03  6F                 	db	111	;'o'
   694  007F04  73                 	db	115	;'s'
   695  007F05  69                 	db	105	;'i'
   696  007F06  74                 	db	116	;'t'
   697  007F07  69                 	db	105	;'i'
   698  007F08  6F                 	db	111	;'o'
   699  007F09  6E                 	db	110	;'n'
   700  007F0A  3A                 	db	58	;':'
   701  007F0B  20                 	db	32
   702  007F0C  33                 	db	51	;'3'
   703  007F0D  20                 	db	32
   704  007F0E  0A                 	db	10
   705  007F0F  00                 	db	0
   706  007F10                     STR_29:
   707  007F10  43                 	db	67	;'C'
   708  007F11  75                 	db	117	;'u'
   709  007F12  72                 	db	114	;'r'
   710  007F13  72                 	db	114	;'r'
   711  007F14  65                 	db	101	;'e'
   712  007F15  6E                 	db	110	;'n'
   713  007F16  74                 	db	116	;'t'
   714  007F17  20                 	db	32
   715  007F18  70                 	db	112	;'p'
   716  007F19  6F                 	db	111	;'o'
   717  007F1A  73                 	db	115	;'s'
   718  007F1B  69                 	db	105	;'i'
   719  007F1C  74                 	db	116	;'t'
   720  007F1D  69                 	db	105	;'i'
   721  007F1E  6F                 	db	111	;'o'
   722  007F1F  6E                 	db	110	;'n'
   723  007F20  3A                 	db	58	;':'
   724  007F21  20                 	db	32
   725  007F22  34                 	db	52	;'4'
   726  007F23  20                 	db	32
   727  007F24  0A                 	db	10
   728  007F25  00                 	db	0
   729  007F26                     STR_31:
   730  007F26  43                 	db	67	;'C'
   731  007F27  75                 	db	117	;'u'
   732  007F28  72                 	db	114	;'r'
   733  007F29  72                 	db	114	;'r'
   734  007F2A  65                 	db	101	;'e'
   735  007F2B  6E                 	db	110	;'n'
   736  007F2C  74                 	db	116	;'t'
   737  007F2D  20                 	db	32
   738  007F2E  70                 	db	112	;'p'
   739  007F2F  6F                 	db	111	;'o'
   740  007F30  73                 	db	115	;'s'
   741  007F31  69                 	db	105	;'i'
   742  007F32  74                 	db	116	;'t'
   743  007F33  69                 	db	105	;'i'
   744  007F34  6F                 	db	111	;'o'
   745  007F35  6E                 	db	110	;'n'
   746  007F36  3A                 	db	58	;':'
   747  007F37  20                 	db	32
   748  007F38  35                 	db	53	;'5'
   749  007F39  20                 	db	32
   750  007F3A  0A                 	db	10
   751  007F3B  00                 	db	0
   752  007F3C                     STR_33:
   753  007F3C  43                 	db	67	;'C'
   754  007F3D  75                 	db	117	;'u'
   755  007F3E  72                 	db	114	;'r'
   756  007F3F  72                 	db	114	;'r'
   757  007F40  65                 	db	101	;'e'
   758  007F41  6E                 	db	110	;'n'
   759  007F42  74                 	db	116	;'t'
   760  007F43  20                 	db	32
   761  007F44  70                 	db	112	;'p'
   762  007F45  6F                 	db	111	;'o'
   763  007F46  73                 	db	115	;'s'
   764  007F47  69                 	db	105	;'i'
   765  007F48  74                 	db	116	;'t'
   766  007F49  69                 	db	105	;'i'
   767  007F4A  6F                 	db	111	;'o'
   768  007F4B  6E                 	db	110	;'n'
   769  007F4C  3A                 	db	58	;':'
   770  007F4D  20                 	db	32
   771  007F4E  36                 	db	54	;'6'
   772  007F4F  20                 	db	32
   773  007F50  0A                 	db	10
   774  007F51  00                 	db	0
   775  007F52                     STR_35:
   776  007F52  43                 	db	67	;'C'
   777  007F53  75                 	db	117	;'u'
   778  007F54  72                 	db	114	;'r'
   779  007F55  72                 	db	114	;'r'
   780  007F56  65                 	db	101	;'e'
   781  007F57  6E                 	db	110	;'n'
   782  007F58  74                 	db	116	;'t'
   783  007F59  20                 	db	32
   784  007F5A  70                 	db	112	;'p'
   785  007F5B  6F                 	db	111	;'o'
   786  007F5C  73                 	db	115	;'s'
   787  007F5D  69                 	db	105	;'i'
   788  007F5E  74                 	db	116	;'t'
   789  007F5F  69                 	db	105	;'i'
   790  007F60  6F                 	db	111	;'o'
   791  007F61  6E                 	db	110	;'n'
   792  007F62  3A                 	db	58	;':'
   793  007F63  20                 	db	32
   794  007F64  37                 	db	55	;'7'
   795  007F65  20                 	db	32
   796  007F66  0A                 	db	10
   797  007F67  00                 	db	0
   798  007F68                     STR_37:
   799  007F68  43                 	db	67	;'C'
   800  007F69  75                 	db	117	;'u'
   801  007F6A  72                 	db	114	;'r'
   802  007F6B  72                 	db	114	;'r'
   803  007F6C  65                 	db	101	;'e'
   804  007F6D  6E                 	db	110	;'n'
   805  007F6E  74                 	db	116	;'t'
   806  007F6F  20                 	db	32
   807  007F70  70                 	db	112	;'p'
   808  007F71  6F                 	db	111	;'o'
   809  007F72  73                 	db	115	;'s'
   810  007F73  69                 	db	105	;'i'
   811  007F74  74                 	db	116	;'t'
   812  007F75  69                 	db	105	;'i'
   813  007F76  6F                 	db	111	;'o'
   814  007F77  6E                 	db	110	;'n'
   815  007F78  3A                 	db	58	;':'
   816  007F79  20                 	db	32
   817  007F7A  38                 	db	56	;'8'
   818  007F7B  20                 	db	32
   819  007F7C  0A                 	db	10
   820  007F7D  00                 	db	0
   821  007F7E                     STR_39:
   822  007F7E  43                 	db	67	;'C'
   823  007F7F  75                 	db	117	;'u'
   824  007F80  72                 	db	114	;'r'
   825  007F81  72                 	db	114	;'r'
   826  007F82  65                 	db	101	;'e'
   827  007F83  6E                 	db	110	;'n'
   828  007F84  74                 	db	116	;'t'
   829  007F85  20                 	db	32
   830  007F86  70                 	db	112	;'p'
   831  007F87  6F                 	db	111	;'o'
   832  007F88  73                 	db	115	;'s'
   833  007F89  69                 	db	105	;'i'
   834  007F8A  74                 	db	116	;'t'
   835  007F8B  69                 	db	105	;'i'
   836  007F8C  6F                 	db	111	;'o'
   837  007F8D  6E                 	db	110	;'n'
   838  007F8E  3A                 	db	58	;':'
   839  007F8F  20                 	db	32
   840  007F90  39                 	db	57	;'9'
   841  007F91  20                 	db	32
   842  007F92  0A                 	db	10
   843  007F93  00                 	db	0
   844  007F94                     STR_20:
   845  007F94  43                 	db	67	;'C'
   846  007F95  6F                 	db	111	;'o'
   847  007F96  6F                 	db	111	;'o'
   848  007F97  72                 	db	114	;'r'
   849  007F98  64                 	db	100	;'d'
   850  007F99  69                 	db	105	;'i'
   851  007F9A  6E                 	db	110	;'n'
   852  007F9B  61                 	db	97	;'a'
   853  007F9C  74                 	db	116	;'t'
   854  007F9D  65                 	db	101	;'e'
   855  007F9E  64                 	db	100	;'d'
   856  007F9F  20                 	db	32
   857  007FA0  72                 	db	114	;'r'
   858  007FA1  65                 	db	101	;'e'
   859  007FA2  63                 	db	99	;'c'
   860  007FA3  65                 	db	101	;'e'
   861  007FA4  69                 	db	105	;'i'
   862  007FA5  76                 	db	118	;'v'
   863  007FA6  65                 	db	101	;'e'
   864  007FA7  64                 	db	100	;'d'
   865  007FA8  0A                 	db	10
   866  007FA9  00                 	db	0
   867  007FAA                     STR_42:
   868  007FAA  4B                 	db	75	;'K'
   869  007FAB  65                 	db	101	;'e'
   870  007FAC  65                 	db	101	;'e'
   871  007FAD  70                 	db	112	;'p'
   872  007FAE  20                 	db	32
   873  007FAF  63                 	db	99	;'c'
   874  007FB0  75                 	db	117	;'u'
   875  007FB1  72                 	db	114	;'r'
   876  007FB2  72                 	db	114	;'r'
   877  007FB3  65                 	db	101	;'e'
   878  007FB4  6E                 	db	110	;'n'
   879  007FB5  74                 	db	116	;'t'
   880  007FB6  20                 	db	32
   881  007FB7  73                 	db	115	;'s'
   882  007FB8  70                 	db	112	;'p'
   883  007FB9  65                 	db	101	;'e'
   884  007FBA  65                 	db	101	;'e'
   885  007FBB  64                 	db	100	;'d'
   886  007FBC  0A                 	db	10
   887  007FBD  00                 	db	0
   888  007FBE                     STR_19:
   889  007FBE  53                 	db	83	;'S'
   890  007FBF  70                 	db	112	;'p'
   891  007FC0  65                 	db	101	;'e'
   892  007FC1  65                 	db	101	;'e'
   893  007FC2  64                 	db	100	;'d'
   894  007FC3  20                 	db	32
   895  007FC4  44                 	db	68	;'D'
   896  007FC5  65                 	db	101	;'e'
   897  007FC6  63                 	db	99	;'c'
   898  007FC7  72                 	db	114	;'r'
   899  007FC8  65                 	db	101	;'e'
   900  007FC9  61                 	db	97	;'a'
   901  007FCA  73                 	db	115	;'s'
   902  007FCB  65                 	db	101	;'e'
   903  007FCC  64                 	db	100	;'d'
   904  007FCD  0A                 	db	10
   905  007FCE  00                 	db	0
   906  007FCF                     STR_18:
   907  007FCF  53                 	db	83	;'S'
   908  007FD0  70                 	db	112	;'p'
   909  007FD1  65                 	db	101	;'e'
   910  007FD2  65                 	db	101	;'e'
   911  007FD3  64                 	db	100	;'d'
   912  007FD4  20                 	db	32
   913  007FD5  49                 	db	73	;'I'
   914  007FD6  6E                 	db	110	;'n'
   915  007FD7  63                 	db	99	;'c'
   916  007FD8  72                 	db	114	;'r'
   917  007FD9  65                 	db	101	;'e'
   918  007FDA  61                 	db	97	;'a'
   919  007FDB  73                 	db	115	;'s'
   920  007FDC  65                 	db	101	;'e'
   921  007FDD  64                 	db	100	;'d'
   922  007FDE  0A                 	db	10
   923  007FDF  00                 	db	0
   924  007FE0                     STR_41:
   925  007FE0  54                 	db	84	;'T'
   926  007FE1  75                 	db	117	;'u'
   927  007FE2  72                 	db	114	;'r'
   928  007FE3  6E                 	db	110	;'n'
   929  007FE4  20                 	db	32
   930  007FE5  6F                 	db	111	;'o'
   931  007FE6  66                 	db	102	;'f'
   932  007FE7  66                 	db	102	;'f'
   933  007FE8  20                 	db	32
   934  007FE9  6D                 	db	109	;'m'
   935  007FEA  6F                 	db	111	;'o'
   936  007FEB  74                 	db	116	;'t'
   937  007FEC  6F                 	db	111	;'o'
   938  007FED  72                 	db	114	;'r'
   939  007FEE  0A                 	db	10
   940  007FEF  00                 	db	0
   941  007FF0                     STR_40:
   942  007FF0  54                 	db	84	;'T'
   943  007FF1  75                 	db	117	;'u'
   944  007FF2  72                 	db	114	;'r'
   945  007FF3  6E                 	db	110	;'n'
   946  007FF4  20                 	db	32
   947  007FF5  6F                 	db	111	;'o'
   948  007FF6  6E                 	db	110	;'n'
   949  007FF7  20                 	db	32
   950  007FF8  6D                 	db	109	;'m'
   951  007FF9  6F                 	db	111	;'o'
   952  007FFA  74                 	db	116	;'t'
   953  007FFB  6F                 	db	111	;'o'
   954  007FFC  72                 	db	114	;'r'
   955  007FFD  0A                 	db	10
   956  007FFE  00                 	db	0
   957  0000                     
   958                           ; #config settings
   959  007FFF  00                 	db	0	; dummy byte at the end
   960  0000                     
   961                           	psect	cinit
   962  001366                     __pcinit:
   963                           	opt callstack 0
   964  001366                     start_initialization:
   965                           	opt callstack 0
   966  001366                     __initialization:
   967                           	opt callstack 0
   968                           
   969                           ; Clear objects allocated to BANK1 (32 bytes)
   970  001366  EE01  F050         	lfsr	0,__pbssBANK1
   971  00136A  0E20               	movlw	32
   972  00136C                     clear_0:
   973  00136C  6AEE               	clrf	postinc0,c
   974  00136E  06E8               	decf	wreg,f,c
   975  001370  E1FD               	bnz	clear_0
   976                           
   977                           ; Clear objects allocated to BANK0 (43 bytes)
   978  001372  EE00  F060         	lfsr	0,__pbssBANK0
   979  001376  0E2B               	movlw	43
   980  001378                     clear_1:
   981  001378  6AEE               	clrf	postinc0,c
   982  00137A  06E8               	decf	wreg,f,c
   983  00137C  E1FD               	bnz	clear_1
   984                           
   985                           ; Clear objects allocated to COMRAM (8 bytes)
   986  00137E  EE00  F04F         	lfsr	0,__pbssCOMRAM
   987  001382  0E08               	movlw	8
   988  001384                     clear_2:
   989  001384  6AEE               	clrf	postinc0,c
   990  001386  06E8               	decf	wreg,f,c
   991  001388  E1FD               	bnz	clear_2
   992  00138A                     end_of_initialization:
   993                           	opt callstack 0
   994  00138A                     __end_of__initialization:
   995                           	opt callstack 0
   996  00138A  9057               	bcf	int$flags,0,c	;clear compiler interrupt flag (level 1)
   997  00138C  9257               	bcf	int$flags,1,c	;clear compiler interrupt flag (level 2)
   998  00138E  0E00               	movlw	low (__Lmediumconst shr (0+16))
   999  001390  6EF8               	movwf	tblptru,c
  1000  001392  0100               	movlb	0
  1001  001394  EF1E  F000         	goto	_main	;jump to C main() function
  1002                           
  1003                           	psect	bssCOMRAM
  1004  00004F                     __pbssCOMRAM:
  1005                           	opt callstack 0
  1006  00004F                     _flags:
  1007                           	opt callstack 0
  1008  00004F                     	ds	2
  1009  000051                     I2C1_ISR@i2c_10bit_address_restart:
  1010                           	opt callstack 0
  1011  000051                     	ds	1
  1012  000052                     I2C1_ISR@i2c_bytes_left:
  1013                           	opt callstack 0
  1014  000052                     	ds	1
  1015  000053                     _i2c1_trb_count:
  1016                           	opt callstack 0
  1017  000053                     	ds	1
  1018  000054                     _i2c1_state:
  1019                           	opt callstack 0
  1020  000054                     	ds	1
  1021  000055                     I2C1_ISR@i2c_address:
  1022                           	opt callstack 0
  1023  000055                     	ds	2
  1024                           
  1025                           	psect	bssBANK0
  1026  000060                     __pbssBANK0:
  1027                           	opt callstack 0
  1028  000060                     _i2c1_object:
  1029                           	opt callstack 0
  1030  000060                     	ds	7
  1031  000067                     _nout:
  1032                           	opt callstack 0
  1033  000067                     	ds	2
  1034  000069                     _width:
  1035                           	opt callstack 0
  1036  000069                     	ds	2
  1037  00006B                     _prec:
  1038                           	opt callstack 0
  1039  00006B                     	ds	2
  1040  00006D                     I2C1_ISR@pi2c_buf_ptr:
  1041                           	opt callstack 0
  1042  00006D                     	ds	2
  1043  00006F                     _p_i2c1_current:
  1044                           	opt callstack 0
  1045  00006F                     	ds	2
  1046  000071                     _p_i2c1_trb_current:
  1047                           	opt callstack 0
  1048  000071                     	ds	2
  1049  000073                     _x:
  1050                           	opt callstack 0
  1051  000073                     	ds	1
  1052  000074                     _userIn:
  1053                           	opt callstack 0
  1054  000074                     	ds	1
  1055  000075                     _dis:
  1056                           	opt callstack 0
  1057  000075                     	ds	1
  1058  000076                     _length:
  1059                           	opt callstack 0
  1060  000076                     	ds	1
  1061  000077                     _eusart1RxLastError:
  1062                           	opt callstack 0
  1063  000077                     	ds	1
  1064  000078                     I2C1_MasterRead@trBlock:
  1065                           	opt callstack 0
  1066  000078                     	ds	5
  1067  00007D                     I2C1_MasterWrite@trBlock:
  1068                           	opt callstack 0
  1069  00007D                     	ds	5
  1070  000082                     _i2c1_tr_queue:
  1071                           	opt callstack 0
  1072  000082                     	ds	5
  1073  000087                     _level:
  1074                           	opt callstack 0
  1075  000087                     	ds	1
  1076  000088                     _command:
  1077                           	opt callstack 0
  1078  000088                     	ds	1
  1079  000089                     _p_status:
  1080                           	opt callstack 0
  1081  000089                     	ds	1
  1082  00008A                     _w_status:
  1083                           	opt callstack 0
  1084  00008A                     	ds	1
  1085                           
  1086                           	psect	bssBANK1
  1087  000150                     __pbssBANK1:
  1088                           	opt callstack 0
  1089  000150                     _dbuf:
  1090                           	opt callstack 0
  1091  000150                     	ds	32
  1092                           
  1093                           	psect	cstackBANK1
  1094  000100                     __pcstackBANK1:
  1095                           	opt callstack 0
  1096  000100                     statusReport@buffer:
  1097                           	opt callstack 0
  1098                           
  1099                           ; 80 bytes @ 0x0
  1100  000100                     	ds	80
  1101                           
  1102                           	psect	cstackBANK0
  1103  00008B                     __pcstackBANK0:
  1104                           	opt callstack 0
  1105  00008B                     ??_vfpfcnvrt:
  1106                           
  1107                           ; 1 bytes @ 0x0
  1108  00008B                     	ds	2
  1109  00008D                     vfpfcnvrt@ll:
  1110                           	opt callstack 0
  1111                           
  1112                           ; 8 bytes @ 0x2
  1113  00008D                     	ds	8
  1114  000095                     vfpfcnvrt@c:
  1115                           	opt callstack 0
  1116                           
  1117                           ; 1 bytes @ 0xA
  1118  000095                     	ds	1
  1119  000096                     ?_vfprintf:
  1120                           	opt callstack 0
  1121  000096                     vfprintf@fp:
  1122                           	opt callstack 0
  1123                           
  1124                           ; 2 bytes @ 0xB
  1125  000096                     	ds	2
  1126  000098                     vfprintf@fmt:
  1127                           	opt callstack 0
  1128                           
  1129                           ; 2 bytes @ 0xD
  1130  000098                     	ds	2
  1131  00009A                     vfprintf@ap:
  1132                           	opt callstack 0
  1133                           
  1134                           ; 2 bytes @ 0xF
  1135  00009A                     	ds	2
  1136  00009C                     vfprintf@cfmt:
  1137                           	opt callstack 0
  1138                           
  1139                           ; 2 bytes @ 0x11
  1140  00009C                     	ds	2
  1141  00009E                     ?_sprintf:
  1142                           	opt callstack 0
  1143  00009E                     sprintf@s:
  1144                           	opt callstack 0
  1145                           
  1146                           ; 2 bytes @ 0x13
  1147  00009E                     	ds	2
  1148  0000A0                     sprintf@fmt:
  1149                           	opt callstack 0
  1150                           
  1151                           ; 2 bytes @ 0x15
  1152  0000A0                     	ds	6
  1153  0000A6                     sprintf@ap:
  1154                           	opt callstack 0
  1155                           
  1156                           ; 2 bytes @ 0x1B
  1157  0000A6                     	ds	2
  1158  0000A8                     sprintf@f:
  1159                           	opt callstack 0
  1160                           
  1161                           ; 6 bytes @ 0x1D
  1162  0000A8                     	ds	6
  1163  0000AE                     ??_main:
  1164                           
  1165                           ; 1 bytes @ 0x23
  1166  0000AE                     	ds	2
  1167                           
  1168                           	psect	cstackCOMRAM
  1169  000001                     __pcstackCOMRAM:
  1170                           	opt callstack 0
  1171  000001                     ??_I2C1_Stop:
  1172  000001                     
  1173                           ; 1 bytes @ 0x0
  1174  000001                     	ds	2
  1175  000003                     I2C1_Stop@completion_code:
  1176                           	opt callstack 0
  1177                           
  1178                           ; 1 bytes @ 0x2
  1179  000003                     	ds	1
  1180  000004                     ??_I2C1_ISR:
  1181                           
  1182                           ; 1 bytes @ 0x3
  1183  000004                     	ds	2
  1184  000006                     ??_INTERRUPT_InterruptManager:
  1185                           
  1186                           ; 1 bytes @ 0x5
  1187  000006                     	ds	2
  1188  000008                     ?_strlen:
  1189                           	opt callstack 0
  1190  000008                     ?___aodiv:
  1191                           	opt callstack 0
  1192  000008                     ?___aomod:
  1193                           	opt callstack 0
  1194  000008                     EUSART1_Write@txData:
  1195                           	opt callstack 0
  1196  000008                     SRAM@b:
  1197                           	opt callstack 0
  1198  000008                     EUSART1_SetFramingErrorHandler@interruptHandler:
  1199                           	opt callstack 0
  1200  000008                     EUSART1_SetOverrunErrorHandler@interruptHandler:
  1201                           	opt callstack 0
  1202  000008                     EUSART1_SetErrorHandler@interruptHandler:
  1203                           	opt callstack 0
  1204  000008                     I2C1_MasterTRBInsert@ptrb_list:
  1205                           	opt callstack 0
  1206  000008                     I2C1_MasterReadTRBBuild@ptrb:
  1207                           	opt callstack 0
  1208  000008                     I2C1_MasterWriteTRBBuild@ptrb:
  1209                           	opt callstack 0
  1210  000008                     strlen@s:
  1211                           	opt callstack 0
  1212  000008                     ___aodiv@dividend:
  1213                           	opt callstack 0
  1214  000008                     ___aomod@dividend:
  1215                           	opt callstack 0
  1216                           
  1217                           ; 8 bytes @ 0x7
  1218  000008                     	ds	1
  1219  000009                     putch@txData:
  1220                           	opt callstack 0
  1221  000009                     SRAM@c:
  1222                           	opt callstack 0
  1223  000009                     sendString@str:
  1224                           	opt callstack 0
  1225                           
  1226                           ; 2 bytes @ 0x8
  1227  000009                     	ds	1
  1228  00000A                     SRAM@d:
  1229                           	opt callstack 0
  1230  00000A                     I2C1_MasterTRBInsert@pflag:
  1231                           	opt callstack 0
  1232  00000A                     I2C1_MasterReadTRBBuild@pdata:
  1233                           	opt callstack 0
  1234  00000A                     I2C1_MasterWriteTRBBuild@pdata:
  1235                           	opt callstack 0
  1236  00000A                     fputc@c:
  1237                           	opt callstack 0
  1238  00000A                     strlen@a:
  1239                           	opt callstack 0
  1240                           
  1241                           ; 2 bytes @ 0x9
  1242  00000A                     	ds	1
  1243  00000B                     SRAM@a:
  1244                           	opt callstack 0
  1245                           
  1246                           ; 1 bytes @ 0xA
  1247  00000B                     	ds	1
  1248  00000C                     I2C1_MasterReadTRBBuild@length:
  1249                           	opt callstack 0
  1250  00000C                     I2C1_MasterWriteTRBBuild@length:
  1251                           	opt callstack 0
  1252  00000C                     fputc@fp:
  1253                           	opt callstack 0
  1254                           
  1255                           ; 2 bytes @ 0xB
  1256  00000C                     	ds	1
  1257  00000D                     I2C1_MasterTRBInsert@count:
  1258                           	opt callstack 0
  1259  00000D                     I2C1_MasterReadTRBBuild@address:
  1260                           	opt callstack 0
  1261  00000D                     I2C1_MasterWriteTRBBuild@address:
  1262                           	opt callstack 0
  1263                           
  1264                           ; 2 bytes @ 0xC
  1265  00000D                     	ds	1
  1266  00000E                     ??_fputc:
  1267                           
  1268                           ; 1 bytes @ 0xD
  1269  00000E                     	ds	1
  1270  00000F                     ??_I2C1_MasterWriteTRBBuild:
  1271  00000F                     ??_I2C1_MasterReadTRBBuild:
  1272                           
  1273                           ; 1 bytes @ 0xE
  1274  00000F                     	ds	1
  1275  000010                     ___aodiv@divisor:
  1276                           	opt callstack 0
  1277  000010                     ___aomod@divisor:
  1278                           	opt callstack 0
  1279                           
  1280                           ; 8 bytes @ 0xF
  1281  000010                     	ds	1
  1282  000011                     I2C1_MasterWrite@pdata:
  1283                           	opt callstack 0
  1284  000011                     I2C1_MasterRead@pdata:
  1285                           	opt callstack 0
  1286                           
  1287                           ; 2 bytes @ 0x10
  1288  000011                     	ds	2
  1289  000013                     I2C1_MasterWrite@length:
  1290                           	opt callstack 0
  1291  000013                     I2C1_MasterRead@length:
  1292                           	opt callstack 0
  1293  000013                     fputs@s:
  1294                           	opt callstack 0
  1295                           
  1296                           ; 2 bytes @ 0x12
  1297  000013                     	ds	1
  1298  000014                     I2C1_MasterWrite@address:
  1299                           	opt callstack 0
  1300  000014                     I2C1_MasterRead@address:
  1301                           	opt callstack 0
  1302                           
  1303                           ; 2 bytes @ 0x13
  1304  000014                     	ds	1
  1305  000015                     fputs@fp:
  1306                           	opt callstack 0
  1307                           
  1308                           ; 2 bytes @ 0x14
  1309  000015                     	ds	1
  1310  000016                     I2C1_MasterWrite@pflag:
  1311                           	opt callstack 0
  1312  000016                     I2C1_MasterRead@pflag:
  1313                           	opt callstack 0
  1314                           
  1315                           ; 2 bytes @ 0x15
  1316  000016                     	ds	1
  1317  000017                     fputs@c:
  1318                           	opt callstack 0
  1319                           
  1320                           ; 1 bytes @ 0x16
  1321  000017                     	ds	1
  1322  000018                     ___aodiv@counter:
  1323                           	opt callstack 0
  1324  000018                     ___aomod@counter:
  1325                           	opt callstack 0
  1326  000018                     fputs@i:
  1327                           	opt callstack 0
  1328                           
  1329                           ; 2 bytes @ 0x17
  1330  000018                     	ds	1
  1331  000019                     ___aodiv@sign:
  1332                           	opt callstack 0
  1333  000019                     ___aomod@sign:
  1334                           	opt callstack 0
  1335                           
  1336                           ; 1 bytes @ 0x18
  1337  000019                     	ds	1
  1338  00001A                     ?_abs:
  1339                           	opt callstack 0
  1340  00001A                     ?_pad:
  1341                           	opt callstack 0
  1342  00001A                     pad@fp:
  1343                           	opt callstack 0
  1344  00001A                     abs@a:
  1345                           	opt callstack 0
  1346  00001A                     ___aodiv@quotient:
  1347                           	opt callstack 0
  1348                           
  1349                           ; 8 bytes @ 0x19
  1350  00001A                     	ds	2
  1351  00001C                     ??_abs:
  1352  00001C                     pad@buf:
  1353                           	opt callstack 0
  1354                           
  1355                           ; 2 bytes @ 0x1B
  1356  00001C                     	ds	2
  1357  00001E                     pad@p:
  1358                           	opt callstack 0
  1359                           
  1360                           ; 2 bytes @ 0x1D
  1361  00001E                     	ds	2
  1362  000020                     ??_pad:
  1363                           
  1364                           ; 1 bytes @ 0x1F
  1365  000020                     	ds	1
  1366  000021                     pad@i:
  1367                           	opt callstack 0
  1368                           
  1369                           ; 2 bytes @ 0x20
  1370  000021                     	ds	2
  1371  000023                     pad@w:
  1372                           	opt callstack 0
  1373                           
  1374                           ; 2 bytes @ 0x22
  1375  000023                     	ds	2
  1376  000025                     ?_ctoa:
  1377                           	opt callstack 0
  1378  000025                     ?_dtoa:
  1379                           	opt callstack 0
  1380  000025                     ctoa@fp:
  1381                           	opt callstack 0
  1382  000025                     dtoa@fp:
  1383                           	opt callstack 0
  1384                           
  1385                           ; 2 bytes @ 0x24
  1386  000025                     	ds	2
  1387  000027                     ctoa@c:
  1388                           	opt callstack 0
  1389  000027                     dtoa@d:
  1390                           	opt callstack 0
  1391                           
  1392                           ; 8 bytes @ 0x26
  1393  000027                     	ds	1
  1394  000028                     ctoa@w:
  1395                           	opt callstack 0
  1396                           
  1397                           ; 2 bytes @ 0x27
  1398  000028                     	ds	7
  1399  00002F                     ??_dtoa:
  1400                           
  1401                           ; 1 bytes @ 0x2E
  1402  00002F                     	ds	8
  1403  000037                     _dtoa$1335:
  1404                           	opt callstack 0
  1405                           
  1406                           ; 2 bytes @ 0x36
  1407  000037                     	ds	2
  1408  000039                     dtoa@p:
  1409                           	opt callstack 0
  1410                           
  1411                           ; 2 bytes @ 0x38
  1412  000039                     	ds	2
  1413  00003B                     dtoa@w:
  1414                           	opt callstack 0
  1415                           
  1416                           ; 2 bytes @ 0x3A
  1417  00003B                     	ds	2
  1418  00003D                     dtoa@s:
  1419                           	opt callstack 0
  1420                           
  1421                           ; 2 bytes @ 0x3C
  1422  00003D                     	ds	2
  1423  00003F                     dtoa@n:
  1424                           	opt callstack 0
  1425                           
  1426                           ; 8 bytes @ 0x3E
  1427  00003F                     	ds	8
  1428  000047                     dtoa@i:
  1429                           	opt callstack 0
  1430                           
  1431                           ; 2 bytes @ 0x46
  1432  000047                     	ds	2
  1433  000049                     ?_vfpfcnvrt:
  1434                           	opt callstack 0
  1435  000049                     vfpfcnvrt@fp:
  1436                           	opt callstack 0
  1437                           
  1438                           ; 2 bytes @ 0x48
  1439  000049                     	ds	2
  1440  00004B                     vfpfcnvrt@fmt:
  1441                           	opt callstack 0
  1442                           
  1443                           ; 2 bytes @ 0x4A
  1444  00004B                     	ds	2
  1445  00004D                     vfpfcnvrt@ap:
  1446                           	opt callstack 0
  1447                           
  1448                           ; 2 bytes @ 0x4C
  1449  00004D                     	ds	2
  1450  00004F                     
  1451                           ; 1 bytes @ 0x4E
  1452 ;;
  1453 ;;Main: autosize = 0, tempsize = 2, incstack = 0, save=0
  1454 ;;
  1455 ;; *************** function _main *****************
  1456 ;; Defined at:
  1457 ;;		line 99 in file "main.c"
  1458 ;; Parameters:    Size  Location     Type
  1459 ;;		None
  1460 ;; Auto vars:     Size  Location     Type
  1461 ;;		None
  1462 ;; Return value:  Size  Location     Type
  1463 ;;                  1    wreg      void 
  1464 ;; Registers used:
  1465 ;;		wreg, fsr1l, fsr1h, fsr2l, fsr2h, status,2, status,0, tblptrl, tblptrh, tblptru, cstack
  1466 ;; Tracked objects:
  1467 ;;		On entry : 0/0
  1468 ;;		On exit  : 0/0
  1469 ;;		Unchanged: 0/0
  1470 ;; Data sizes:     COMRAM   BANK0   BANK1   BANK2   BANK3   BANK4   BANK5
  1471 ;;      Params:         0       0       0       0       0       0       0
  1472 ;;      Locals:         0       0       0       0       0       0       0
  1473 ;;      Temps:          0       2       0       0       0       0       0
  1474 ;;      Totals:         0       2       0       0       0       0       0
  1475 ;;Total ram usage:        2 bytes
  1476 ;; Hardware stack levels required when called:   13
  1477 ;; This function calls:
  1478 ;;		_EUSART1_Read
  1479 ;;		_EUSART1_is_rx_ready
  1480 ;;		_I2C1_MasterRead
  1481 ;;		_I2C1_MasterWrite
  1482 ;;		_SRAM
  1483 ;;		_SYSTEM_Initialize
  1484 ;;		_sendString
  1485 ;;		_statusReport
  1486 ;; This function is called by:
  1487 ;;		Startup code after reset
  1488 ;; This function uses a non-reentrant model
  1489 ;;
  1490                           
  1491                           	psect	text0
  1492  00003C                     __ptext0:
  1493                           	opt callstack 0
  1494  00003C                     _main:
  1495                           	opt callstack 18
  1496                           
  1497                           ;main.c: 102:     SYSTEM_Initialize();
  1498                           
  1499                           ;incstack = 0
  1500  00003C  EC1D  F00A         	call	_SYSTEM_Initialize	;wreg free
  1501                           
  1502                           ;main.c: 109:     (INTCONbits.GIE = 1);
  1503  000040  8EF2               	bsf	4082,7,c	;volatile
  1504                           
  1505                           ;main.c: 115:     (INTCONbits.PEIE = 1);
  1506  000042  8CF2               	bsf	4082,6,c	;volatile
  1507                           
  1508                           ;main.c: 119:     _delay((unsigned long)((1000)*(1000000/4000.0)));
  1509  000044  0E02               	movlw	2
  1510  000046  0100               	movlb	0	; () banked
  1511  000048  6FAF               	movwf	(??_main+1)& (0+255),b
  1512  00004A  0E45               	movlw	69
  1513  00004C  6FAE               	movwf	??_main& (0+255),b
  1514  00004E  0EA9               	movlw	169
  1515  000050                     u2767:
  1516  000050  2EE8               	decfsz	wreg,f,c
  1517  000052  D7FE               	bra	u2767
  1518  000054  2FAE               	decfsz	??_main& (0+255),f,b
  1519  000056  D7FC               	bra	u2767
  1520  000058  2FAF               	decfsz	(??_main+1)& (0+255),f,b
  1521  00005A  D7FA               	bra	u2767
  1522  00005C  D000               	nop2	
  1523                           
  1524                           ;main.c: 120:     dis = 0;
  1525  00005E  0E00               	movlw	0
  1526  000060  0100               	movlb	0	; () banked
  1527  000062  6F75               	movwf	_dis& (0+255),b
  1528                           
  1529                           ; BSR set to: 0
  1530                           ;main.c: 121:     length = 1;
  1531  000064  0E01               	movlw	1
  1532  000066  6F76               	movwf	_length& (0+255),b
  1533                           
  1534                           ; BSR set to: 0
  1535                           ;main.c: 122:     x = 0;
  1536  000068  0E00               	movlw	0
  1537  00006A  6F73               	movwf	_x& (0+255),b
  1538                           
  1539                           ; BSR set to: 0
  1540                           ;main.c: 123:     statusReport();
  1541  00006C  EC80  F006         	call	_statusReport	;wreg free
  1542  000070                     l3266:
  1543                           
  1544                           ;main.c: 126:     {;main.c: 127:         if (dis == 100) {
  1545  000070  0E64               	movlw	100
  1546  000072  0100               	movlb	0	; () banked
  1547  000074  1975               	xorwf	_dis& (0+255),w,b
  1548  000076  A4D8               	btfss	status,2,c
  1549  000078  D005               	goto	l3272
  1550                           
  1551                           ; BSR set to: 0
  1552                           ;main.c: 128:             statusReport();
  1553  00007A  EC80  F006         	call	_statusReport	;wreg free
  1554                           
  1555                           ;main.c: 129:             dis = 0;
  1556  00007E  0E00               	movlw	0
  1557  000080  0100               	movlb	0	; () banked
  1558  000082  D001               	goto	L1
  1559  000084                     l3272:
  1560                           
  1561                           ; BSR set to: 0
  1562                           ;main.c: 131:             dis = dis + 1;
  1563  000084  2975               	incf	_dis& (0+255),w,b
  1564  000086                     L1:
  1565  000086  6F75               	movwf	_dis& (0+255),b
  1566                           
  1567                           ; BSR set to: 0
  1568                           ;main.c: 134:         I2C1_MasterRead(&level, length, 0x08, &p_status);
  1569  000088  0E87               	movlw	low _level
  1570  00008A  6E11               	movwf	I2C1_MasterRead@pdata,c
  1571  00008C  0E00               	movlw	high _level
  1572  00008E  6E12               	movwf	I2C1_MasterRead@pdata+1,c
  1573  000090  C076  F013         	movff	_length,I2C1_MasterRead@length
  1574  000094  0E00               	movlw	0
  1575  000096  6E15               	movwf	I2C1_MasterRead@address+1,c
  1576  000098  0E08               	movlw	8
  1577  00009A  6E14               	movwf	I2C1_MasterRead@address,c
  1578  00009C  0E89               	movlw	low _p_status
  1579  00009E  6E16               	movwf	I2C1_MasterRead@pflag,c
  1580  0000A0  0E00               	movlw	high _p_status
  1581  0000A2  6E17               	movwf	I2C1_MasterRead@pflag+1,c
  1582  0000A4  ECDA  F008         	call	_I2C1_MasterRead	;wreg free
  1583  0000A8                     l3276:
  1584  0000A8  0100               	movlb	0	; () banked
  1585  0000AA  518A               	movf	_w_status& (0+255),w,b
  1586  0000AC  A4D8               	btfss	status,2,c
  1587  0000AE  D7FC               	goto	l3276
  1588                           
  1589                           ; BSR set to: 0
  1590                           ;main.c: 136:         if (level == '0'){
  1591  0000B0  0E30               	movlw	48
  1592  0000B2  1987               	xorwf	_level& (0+255),w,b
  1593  0000B4  A4D8               	btfss	status,2,c
  1594  0000B6  D019               	goto	l3286
  1595                           
  1596                           ; BSR set to: 0
  1597                           ;main.c: 137:           sendString("WARNING generated progress hold\n");
  1598  0000B8  0E19               	movlw	low STR_17
  1599  0000BA  6E09               	movwf	sendString@str,c
  1600  0000BC  0E7E               	movlw	high STR_17
  1601  0000BE  6E0A               	movwf	sendString@str+1,c
  1602  0000C0  EC3B  F008         	call	_sendString	;wreg free
  1603                           
  1604                           ;main.c: 138:           command = 'f';
  1605  0000C4  0E66               	movlw	102
  1606  0000C6  0100               	movlb	0	; () banked
  1607  0000C8  6F88               	movwf	_command& (0+255),b
  1608                           
  1609                           ; BSR set to: 0
  1610                           ;main.c: 139:           I2C1_MasterWrite(&command, length, 0x08, &w_status);
  1611  0000CA  0E88               	movlw	low _command
  1612  0000CC  6E11               	movwf	I2C1_MasterWrite@pdata,c
  1613  0000CE  0E00               	movlw	high _command
  1614  0000D0  6E12               	movwf	I2C1_MasterWrite@pdata+1,c
  1615  0000D2  C076  F013         	movff	_length,I2C1_MasterWrite@length
  1616  0000D6  0E00               	movlw	0
  1617  0000D8  6E15               	movwf	I2C1_MasterWrite@address+1,c
  1618  0000DA  0E08               	movlw	8
  1619  0000DC  6E14               	movwf	I2C1_MasterWrite@address,c
  1620  0000DE  0E8A               	movlw	low _w_status
  1621  0000E0  6E16               	movwf	I2C1_MasterWrite@pflag,c
  1622  0000E2  0E00               	movlw	high _w_status
  1623  0000E4  6E17               	movwf	I2C1_MasterWrite@pflag+1,c
  1624  0000E6  ECB4  F008         	call	_I2C1_MasterWrite	;wreg free
  1625  0000EA                     l3286:
  1626                           
  1627                           ;main.c: 143:         if(EUSART1_is_rx_ready())
  1628  0000EA  EC40  F00A         	call	_EUSART1_is_rx_ready	;wreg free
  1629  0000EE  0900               	iorlw	0
  1630  0000F0  B4D8               	btfsc	status,2,c
  1631  0000F2  D18A               	goto	l3442
  1632                           
  1633                           ;main.c: 144:         {;main.c: 145:             do { LATCbits.LATC5 = 1; } while(0);
  1634  0000F4  8A8B               	bsf	3979,5,c	;volatile
  1635                           
  1636                           ;main.c: 146:             userIn = EUSART1_Read();
  1637  0000F6  EC28  F00A         	call	_EUSART1_Read	;wreg free
  1638  0000FA  0100               	movlb	0	; () banked
  1639  0000FC  6F74               	movwf	_userIn& (0+255),b
  1640                           
  1641                           ; BSR set to: 0
  1642                           ;main.c: 147:             if (userIn == 'i') {
  1643  0000FE  0E69               	movlw	105
  1644  000100  1974               	xorwf	_userIn& (0+255),w,b
  1645  000102  A4D8               	btfss	status,2,c
  1646  000104  D008               	goto	l3296
  1647                           
  1648                           ; BSR set to: 0
  1649                           ;main.c: 148:                 sendString("Speed Increased\n");
  1650  000106  0ECF               	movlw	low STR_18
  1651  000108  6E09               	movwf	sendString@str,c
  1652  00010A  0E7F               	movlw	high STR_18
  1653  00010C  6E0A               	movwf	sendString@str+1,c
  1654  00010E  EC3B  F008         	call	_sendString	;wreg free
  1655                           
  1656                           ;main.c: 149:                 command = 'i';
  1657  000112  0E69               	movlw	105
  1658  000114  D167               	goto	L5
  1659  000116                     l3296:
  1660                           
  1661                           ; BSR set to: 0
  1662  000116  0E64               	movlw	100
  1663  000118  1974               	xorwf	_userIn& (0+255),w,b
  1664  00011A  A4D8               	btfss	status,2,c
  1665  00011C  D008               	goto	l3302
  1666                           
  1667                           ; BSR set to: 0
  1668                           ;main.c: 151:                 sendString("Speed Decreased\n");
  1669  00011E  0EBE               	movlw	low STR_19
  1670  000120  6E09               	movwf	sendString@str,c
  1671  000122  0E7F               	movlw	high STR_19
  1672  000124  6E0A               	movwf	sendString@str+1,c
  1673  000126  EC3B  F008         	call	_sendString	;wreg free
  1674                           
  1675                           ;main.c: 152:                 command = 'd';
  1676  00012A  0E64               	movlw	100
  1677  00012C  D15B               	goto	L5
  1678  00012E                     l3302:
  1679                           
  1680                           ; BSR set to: 0
  1681  00012E  0E30               	movlw	48
  1682  000130  1974               	xorwf	_userIn& (0+255),w,b
  1683  000132  A4D8               	btfss	status,2,c
  1684  000134  D01B               	goto	l3314
  1685                           
  1686                           ; BSR set to: 0
  1687                           ;main.c: 154:                 sendString("Coordinated received\n");
  1688  000136  0E94               	movlw	low STR_20
  1689  000138  6E09               	movwf	sendString@str,c
  1690  00013A  0E7F               	movlw	high STR_20
  1691  00013C  6E0A               	movwf	sendString@str+1,c
  1692  00013E  EC3B  F008         	call	_sendString	;wreg free
  1693                           
  1694                           ;main.c: 155:                 command = (char)0;
  1695  000142  0E00               	movlw	0
  1696  000144  0100               	movlb	0	; () banked
  1697  000146  6F88               	movwf	_command& (0+255),b
  1698                           
  1699                           ; BSR set to: 0
  1700                           ;main.c: 156:                 x = 0;
  1701  000148  0E00               	movlw	0
  1702  00014A  6F73               	movwf	_x& (0+255),b
  1703                           
  1704                           ; BSR set to: 0
  1705                           ;main.c: 157:                 SRAM(0, 0, 0, 0);
  1706  00014C  0E00               	movlw	0
  1707  00014E  6E08               	movwf	SRAM@b,c
  1708  000150  0E00               	movlw	0
  1709  000152  6E09               	movwf	SRAM@c,c
  1710  000154  0E00               	movlw	0
  1711  000156  6E0A               	movwf	SRAM@d,c
  1712  000158  0E00               	movlw	0
  1713  00015A  EC7E  F009         	call	_SRAM
  1714                           
  1715                           ;main.c: 158:                 sendString("Current position: 0 \n");
  1716  00015E  0EB8               	movlw	low STR_21
  1717  000160  6E09               	movwf	sendString@str,c
  1718  000162  0E7E               	movlw	high STR_21
  1719  000164  6E0A               	movwf	sendString@str+1,c
  1720  000166  EC3B  F008         	call	_sendString	;wreg free
  1721                           
  1722                           ;main.c: 159:             } else if (userIn == '1'){
  1723  00016A  D13E               	goto	l444
  1724  00016C                     l3314:
  1725                           
  1726                           ; BSR set to: 0
  1727  00016C  0E31               	movlw	49
  1728  00016E  1974               	xorwf	_userIn& (0+255),w,b
  1729  000170  A4D8               	btfss	status,2,c
  1730  000172  D01B               	goto	l3326
  1731                           
  1732                           ; BSR set to: 0
  1733                           ;main.c: 160:                 sendString("Coordinated received\n");
  1734  000174  0E94               	movlw	low STR_20
  1735  000176  6E09               	movwf	sendString@str,c
  1736  000178  0E7F               	movlw	high STR_20
  1737  00017A  6E0A               	movwf	sendString@str+1,c
  1738  00017C  EC3B  F008         	call	_sendString	;wreg free
  1739                           
  1740                           ;main.c: 161:                 command = (char)1;
  1741  000180  0E01               	movlw	1
  1742  000182  0100               	movlb	0	; () banked
  1743  000184  6F88               	movwf	_command& (0+255),b
  1744                           
  1745                           ; BSR set to: 0
  1746                           ;main.c: 162:                 x = 1;
  1747  000186  0E01               	movlw	1
  1748  000188  6F73               	movwf	_x& (0+255),b
  1749                           
  1750                           ; BSR set to: 0
  1751                           ;main.c: 163:                 SRAM(0, 0, 0, 1);
  1752  00018A  0E00               	movlw	0
  1753  00018C  6E08               	movwf	SRAM@b,c
  1754  00018E  0E00               	movlw	0
  1755  000190  6E09               	movwf	SRAM@c,c
  1756  000192  0E01               	movlw	1
  1757  000194  6E0A               	movwf	SRAM@d,c
  1758  000196  0E00               	movlw	0
  1759  000198  EC7E  F009         	call	_SRAM
  1760                           
  1761                           ;main.c: 164:                 sendString("Current position: 1 \n");
  1762  00019C  0ECE               	movlw	low STR_23
  1763  00019E  6E09               	movwf	sendString@str,c
  1764  0001A0  0E7E               	movlw	high STR_23
  1765  0001A2  6E0A               	movwf	sendString@str+1,c
  1766  0001A4  EC3B  F008         	call	_sendString	;wreg free
  1767                           
  1768                           ;main.c: 165:             } else if (userIn == '2'){
  1769  0001A8  D11F               	goto	l444
  1770  0001AA                     l3326:
  1771                           
  1772                           ; BSR set to: 0
  1773  0001AA  0E32               	movlw	50
  1774  0001AC  1974               	xorwf	_userIn& (0+255),w,b
  1775  0001AE  A4D8               	btfss	status,2,c
  1776  0001B0  D01B               	goto	l3338
  1777                           
  1778                           ; BSR set to: 0
  1779                           ;main.c: 166:                 sendString("Coordinated received\n");
  1780  0001B2  0E94               	movlw	low STR_20
  1781  0001B4  6E09               	movwf	sendString@str,c
  1782  0001B6  0E7F               	movlw	high STR_20
  1783  0001B8  6E0A               	movwf	sendString@str+1,c
  1784  0001BA  EC3B  F008         	call	_sendString	;wreg free
  1785                           
  1786                           ;main.c: 167:                 command = (char)2;
  1787  0001BE  0E02               	movlw	2
  1788  0001C0  0100               	movlb	0	; () banked
  1789  0001C2  6F88               	movwf	_command& (0+255),b
  1790                           
  1791                           ; BSR set to: 0
  1792                           ;main.c: 168:                 x = 2;
  1793  0001C4  0E02               	movlw	2
  1794  0001C6  6F73               	movwf	_x& (0+255),b
  1795                           
  1796                           ; BSR set to: 0
  1797                           ;main.c: 169:                 SRAM(0, 0, 1, 0);
  1798  0001C8  0E00               	movlw	0
  1799  0001CA  6E08               	movwf	SRAM@b,c
  1800  0001CC  0E01               	movlw	1
  1801  0001CE  6E09               	movwf	SRAM@c,c
  1802  0001D0  0E00               	movlw	0
  1803  0001D2  6E0A               	movwf	SRAM@d,c
  1804  0001D4  0E00               	movlw	0
  1805  0001D6  EC7E  F009         	call	_SRAM
  1806                           
  1807                           ;main.c: 170:                 sendString("Current position: 2 \n");
  1808  0001DA  0EE4               	movlw	low STR_25
  1809  0001DC  6E09               	movwf	sendString@str,c
  1810  0001DE  0E7E               	movlw	high STR_25
  1811  0001E0  6E0A               	movwf	sendString@str+1,c
  1812  0001E2  EC3B  F008         	call	_sendString	;wreg free
  1813                           
  1814                           ;main.c: 171:             } else if (userIn == '3'){
  1815  0001E6  D100               	goto	l444
  1816  0001E8                     l3338:
  1817                           
  1818                           ; BSR set to: 0
  1819  0001E8  0E33               	movlw	51
  1820  0001EA  1974               	xorwf	_userIn& (0+255),w,b
  1821  0001EC  A4D8               	btfss	status,2,c
  1822  0001EE  D01B               	goto	l3350
  1823                           
  1824                           ; BSR set to: 0
  1825                           ;main.c: 172:                 sendString("Coordinated received\n");
  1826  0001F0  0E94               	movlw	low STR_20
  1827  0001F2  6E09               	movwf	sendString@str,c
  1828  0001F4  0E7F               	movlw	high STR_20
  1829  0001F6  6E0A               	movwf	sendString@str+1,c
  1830  0001F8  EC3B  F008         	call	_sendString	;wreg free
  1831                           
  1832                           ;main.c: 173:                 command = (char)3;
  1833  0001FC  0E03               	movlw	3
  1834  0001FE  0100               	movlb	0	; () banked
  1835  000200  6F88               	movwf	_command& (0+255),b
  1836                           
  1837                           ; BSR set to: 0
  1838                           ;main.c: 174:                 x = 3;
  1839  000202  0E03               	movlw	3
  1840  000204  6F73               	movwf	_x& (0+255),b
  1841                           
  1842                           ; BSR set to: 0
  1843                           ;main.c: 175:                 SRAM(0, 0, 1, 1);
  1844  000206  0E00               	movlw	0
  1845  000208  6E08               	movwf	SRAM@b,c
  1846  00020A  0E01               	movlw	1
  1847  00020C  6E09               	movwf	SRAM@c,c
  1848  00020E  0E01               	movlw	1
  1849  000210  6E0A               	movwf	SRAM@d,c
  1850  000212  0E00               	movlw	0
  1851  000214  EC7E  F009         	call	_SRAM
  1852                           
  1853                           ;main.c: 176:                 sendString("Current position: 3 \n");
  1854  000218  0EFA               	movlw	low STR_27
  1855  00021A  6E09               	movwf	sendString@str,c
  1856  00021C  0E7E               	movlw	high STR_27
  1857  00021E  6E0A               	movwf	sendString@str+1,c
  1858  000220  EC3B  F008         	call	_sendString	;wreg free
  1859                           
  1860                           ;main.c: 177:             } else if (userIn == '4'){
  1861  000224  D0E1               	goto	l444
  1862  000226                     l3350:
  1863                           
  1864                           ; BSR set to: 0
  1865  000226  0E34               	movlw	52
  1866  000228  1974               	xorwf	_userIn& (0+255),w,b
  1867  00022A  A4D8               	btfss	status,2,c
  1868  00022C  D01B               	goto	l3362
  1869                           
  1870                           ; BSR set to: 0
  1871                           ;main.c: 178:                 sendString("Coordinated received\n");
  1872  00022E  0E94               	movlw	low STR_20
  1873  000230  6E09               	movwf	sendString@str,c
  1874  000232  0E7F               	movlw	high STR_20
  1875  000234  6E0A               	movwf	sendString@str+1,c
  1876  000236  EC3B  F008         	call	_sendString	;wreg free
  1877                           
  1878                           ;main.c: 179:                 command = (char)4;
  1879  00023A  0E04               	movlw	4
  1880  00023C  0100               	movlb	0	; () banked
  1881  00023E  6F88               	movwf	_command& (0+255),b
  1882                           
  1883                           ; BSR set to: 0
  1884                           ;main.c: 180:                 x = 4;
  1885  000240  0E04               	movlw	4
  1886  000242  6F73               	movwf	_x& (0+255),b
  1887                           
  1888                           ; BSR set to: 0
  1889                           ;main.c: 181:                 SRAM(0, 1, 0, 0);
  1890  000244  0E01               	movlw	1
  1891  000246  6E08               	movwf	SRAM@b,c
  1892  000248  0E00               	movlw	0
  1893  00024A  6E09               	movwf	SRAM@c,c
  1894  00024C  0E00               	movlw	0
  1895  00024E  6E0A               	movwf	SRAM@d,c
  1896  000250  0E00               	movlw	0
  1897  000252  EC7E  F009         	call	_SRAM
  1898                           
  1899                           ;main.c: 182:                 sendString("Current position: 4 \n");
  1900  000256  0E10               	movlw	low STR_29
  1901  000258  6E09               	movwf	sendString@str,c
  1902  00025A  0E7F               	movlw	high STR_29
  1903  00025C  6E0A               	movwf	sendString@str+1,c
  1904  00025E  EC3B  F008         	call	_sendString	;wreg free
  1905                           
  1906                           ;main.c: 183:             } else if (userIn == '5'){
  1907  000262  D0C2               	goto	l444
  1908  000264                     l3362:
  1909                           
  1910                           ; BSR set to: 0
  1911  000264  0E35               	movlw	53
  1912  000266  1974               	xorwf	_userIn& (0+255),w,b
  1913  000268  A4D8               	btfss	status,2,c
  1914  00026A  D01C               	goto	l3374
  1915                           
  1916                           ; BSR set to: 0
  1917                           ;main.c: 184:                 sendString("Coordinated received\n");
  1918  00026C  0E94               	movlw	low STR_20
  1919  00026E  6E09               	movwf	sendString@str,c
  1920  000270  0E7F               	movlw	high STR_20
  1921  000272  6E0A               	movwf	sendString@str+1,c
  1922  000274  EC3B  F008         	call	_sendString	;wreg free
  1923                           
  1924                           ;main.c: 185:                 command = (char)5;
  1925  000278  0E05               	movlw	5
  1926  00027A  0100               	movlb	0	; () banked
  1927  00027C  6F88               	movwf	_command& (0+255),b
  1928                           
  1929                           ; BSR set to: 0
  1930                           ;main.c: 186:                 SRAM(0, 1, 0, 1);
  1931  00027E  0E01               	movlw	1
  1932  000280  6E08               	movwf	SRAM@b,c
  1933  000282  0E00               	movlw	0
  1934  000284  6E09               	movwf	SRAM@c,c
  1935  000286  0E01               	movlw	1
  1936  000288  6E0A               	movwf	SRAM@d,c
  1937  00028A  0E00               	movlw	0
  1938  00028C  EC7E  F009         	call	_SRAM
  1939                           
  1940                           ;main.c: 187:                 x = 5;
  1941  000290  0E05               	movlw	5
  1942  000292  0100               	movlb	0	; () banked
  1943  000294  6F73               	movwf	_x& (0+255),b
  1944                           
  1945                           ; BSR set to: 0
  1946                           ;main.c: 188:                 sendString("Current position: 5 \n");
  1947  000296  0E26               	movlw	low STR_31
  1948  000298  6E09               	movwf	sendString@str,c
  1949  00029A  0E7F               	movlw	high STR_31
  1950  00029C  6E0A               	movwf	sendString@str+1,c
  1951  00029E  EC3B  F008         	call	_sendString	;wreg free
  1952                           
  1953                           ;main.c: 189:             } else if (userIn == '6'){
  1954  0002A2  D0A2               	goto	l444
  1955  0002A4                     l3374:
  1956                           
  1957                           ; BSR set to: 0
  1958  0002A4  0E36               	movlw	54
  1959  0002A6  1974               	xorwf	_userIn& (0+255),w,b
  1960  0002A8  A4D8               	btfss	status,2,c
  1961  0002AA  D01C               	goto	l3386
  1962                           
  1963                           ; BSR set to: 0
  1964                           ;main.c: 190:                 sendString("Coordinated received\n");
  1965  0002AC  0E94               	movlw	low STR_20
  1966  0002AE  6E09               	movwf	sendString@str,c
  1967  0002B0  0E7F               	movlw	high STR_20
  1968  0002B2  6E0A               	movwf	sendString@str+1,c
  1969  0002B4  EC3B  F008         	call	_sendString	;wreg free
  1970                           
  1971                           ;main.c: 191:                 command = (char)6;
  1972  0002B8  0E06               	movlw	6
  1973  0002BA  0100               	movlb	0	; () banked
  1974  0002BC  6F88               	movwf	_command& (0+255),b
  1975                           
  1976                           ; BSR set to: 0
  1977                           ;main.c: 192:                 SRAM(0, 1, 1, 0);
  1978  0002BE  0E01               	movlw	1
  1979  0002C0  6E08               	movwf	SRAM@b,c
  1980  0002C2  0E01               	movlw	1
  1981  0002C4  6E09               	movwf	SRAM@c,c
  1982  0002C6  0E00               	movlw	0
  1983  0002C8  6E0A               	movwf	SRAM@d,c
  1984  0002CA  0E00               	movlw	0
  1985  0002CC  EC7E  F009         	call	_SRAM
  1986                           
  1987                           ;main.c: 193:                 x = 6;
  1988  0002D0  0E06               	movlw	6
  1989  0002D2  0100               	movlb	0	; () banked
  1990  0002D4  6F73               	movwf	_x& (0+255),b
  1991                           
  1992                           ; BSR set to: 0
  1993                           ;main.c: 194:                 sendString("Current position: 6 \n");
  1994  0002D6  0E3C               	movlw	low STR_33
  1995  0002D8  6E09               	movwf	sendString@str,c
  1996  0002DA  0E7F               	movlw	high STR_33
  1997  0002DC  6E0A               	movwf	sendString@str+1,c
  1998  0002DE  EC3B  F008         	call	_sendString	;wreg free
  1999                           
  2000                           ;main.c: 195:             } else if (userIn == '7'){
  2001  0002E2  D082               	goto	l444
  2002  0002E4                     l3386:
  2003                           
  2004                           ; BSR set to: 0
  2005  0002E4  0E37               	movlw	55
  2006  0002E6  1974               	xorwf	_userIn& (0+255),w,b
  2007  0002E8  A4D8               	btfss	status,2,c
  2008  0002EA  D01B               	goto	l3398
  2009                           
  2010                           ; BSR set to: 0
  2011                           ;main.c: 196:                 sendString("Coordinated received\n");
  2012  0002EC  0E94               	movlw	low STR_20
  2013  0002EE  6E09               	movwf	sendString@str,c
  2014  0002F0  0E7F               	movlw	high STR_20
  2015  0002F2  6E0A               	movwf	sendString@str+1,c
  2016  0002F4  EC3B  F008         	call	_sendString	;wreg free
  2017                           
  2018                           ;main.c: 197:                 command = (char)7;
  2019  0002F8  0E07               	movlw	7
  2020  0002FA  0100               	movlb	0	; () banked
  2021  0002FC  6F88               	movwf	_command& (0+255),b
  2022                           
  2023                           ; BSR set to: 0
  2024                           ;main.c: 198:                 x = 7;
  2025  0002FE  0E07               	movlw	7
  2026  000300  6F73               	movwf	_x& (0+255),b
  2027                           
  2028                           ; BSR set to: 0
  2029                           ;main.c: 199:                 SRAM(0, 1, 1, 1);
  2030  000302  0E01               	movlw	1
  2031  000304  6E08               	movwf	SRAM@b,c
  2032  000306  0E01               	movlw	1
  2033  000308  6E09               	movwf	SRAM@c,c
  2034  00030A  0E01               	movlw	1
  2035  00030C  6E0A               	movwf	SRAM@d,c
  2036  00030E  0E00               	movlw	0
  2037  000310  EC7E  F009         	call	_SRAM
  2038                           
  2039                           ;main.c: 200:                 sendString("Current position: 7 \n");
  2040  000314  0E52               	movlw	low STR_35
  2041  000316  6E09               	movwf	sendString@str,c
  2042  000318  0E7F               	movlw	high STR_35
  2043  00031A  6E0A               	movwf	sendString@str+1,c
  2044  00031C  EC3B  F008         	call	_sendString	;wreg free
  2045                           
  2046                           ;main.c: 201:             } else if (userIn == '8'){
  2047  000320  D063               	goto	l444
  2048  000322                     l3398:
  2049                           
  2050                           ; BSR set to: 0
  2051  000322  0E38               	movlw	56
  2052  000324  1974               	xorwf	_userIn& (0+255),w,b
  2053  000326  A4D8               	btfss	status,2,c
  2054  000328  D01B               	goto	l3410
  2055                           
  2056                           ; BSR set to: 0
  2057                           ;main.c: 202:                 sendString("Coordinated received\n");
  2058  00032A  0E94               	movlw	low STR_20
  2059  00032C  6E09               	movwf	sendString@str,c
  2060  00032E  0E7F               	movlw	high STR_20
  2061  000330  6E0A               	movwf	sendString@str+1,c
  2062  000332  EC3B  F008         	call	_sendString	;wreg free
  2063                           
  2064                           ;main.c: 203:                 command = (char)8;
  2065  000336  0E08               	movlw	8
  2066  000338  0100               	movlb	0	; () banked
  2067  00033A  6F88               	movwf	_command& (0+255),b
  2068                           
  2069                           ; BSR set to: 0
  2070                           ;main.c: 204:                 x = 8;
  2071  00033C  0E08               	movlw	8
  2072  00033E  6F73               	movwf	_x& (0+255),b
  2073                           
  2074                           ; BSR set to: 0
  2075                           ;main.c: 205:                 SRAM(1, 0, 0, 0);
  2076  000340  0E00               	movlw	0
  2077  000342  6E08               	movwf	SRAM@b,c
  2078  000344  0E00               	movlw	0
  2079  000346  6E09               	movwf	SRAM@c,c
  2080  000348  0E00               	movlw	0
  2081  00034A  6E0A               	movwf	SRAM@d,c
  2082  00034C  0E01               	movlw	1
  2083  00034E  EC7E  F009         	call	_SRAM
  2084                           
  2085                           ;main.c: 206:                 sendString("Current position: 8 \n");
  2086  000352  0E68               	movlw	low STR_37
  2087  000354  6E09               	movwf	sendString@str,c
  2088  000356  0E7F               	movlw	high STR_37
  2089  000358  6E0A               	movwf	sendString@str+1,c
  2090  00035A  EC3B  F008         	call	_sendString	;wreg free
  2091                           
  2092                           ;main.c: 207:             } else if (userIn == '9'){
  2093  00035E  D044               	goto	l444
  2094  000360                     l3410:
  2095                           
  2096                           ; BSR set to: 0
  2097  000360  0E39               	movlw	57
  2098  000362  1974               	xorwf	_userIn& (0+255),w,b
  2099  000364  A4D8               	btfss	status,2,c
  2100  000366  D01B               	goto	l3422
  2101                           
  2102                           ; BSR set to: 0
  2103                           ;main.c: 208:                 sendString("Coordinated received\n");
  2104  000368  0E94               	movlw	low STR_20
  2105  00036A  6E09               	movwf	sendString@str,c
  2106  00036C  0E7F               	movlw	high STR_20
  2107  00036E  6E0A               	movwf	sendString@str+1,c
  2108  000370  EC3B  F008         	call	_sendString	;wreg free
  2109                           
  2110                           ;main.c: 209:                 command = (char)9;
  2111  000374  0E09               	movlw	9
  2112  000376  0100               	movlb	0	; () banked
  2113  000378  6F88               	movwf	_command& (0+255),b
  2114                           
  2115                           ; BSR set to: 0
  2116                           ;main.c: 210:                 x = 9;
  2117  00037A  0E09               	movlw	9
  2118  00037C  6F73               	movwf	_x& (0+255),b
  2119                           
  2120                           ; BSR set to: 0
  2121                           ;main.c: 211:                 SRAM(1, 0, 0, 1);
  2122  00037E  0E00               	movlw	0
  2123  000380  6E08               	movwf	SRAM@b,c
  2124  000382  0E00               	movlw	0
  2125  000384  6E09               	movwf	SRAM@c,c
  2126  000386  0E01               	movlw	1
  2127  000388  6E0A               	movwf	SRAM@d,c
  2128  00038A  0E01               	movlw	1
  2129  00038C  EC7E  F009         	call	_SRAM
  2130                           
  2131                           ;main.c: 212:                 sendString("Current position: 9 \n");
  2132  000390  0E7E               	movlw	low STR_39
  2133  000392  6E09               	movwf	sendString@str,c
  2134  000394  0E7F               	movlw	high STR_39
  2135  000396  6E0A               	movwf	sendString@str+1,c
  2136  000398  EC3B  F008         	call	_sendString	;wreg free
  2137                           
  2138                           ;main.c: 213:             } else if (userIn == 'o') {
  2139  00039C  D025               	goto	l444
  2140  00039E                     l3422:
  2141                           
  2142                           ; BSR set to: 0
  2143  00039E  0E6F               	movlw	111
  2144  0003A0  1974               	xorwf	_userIn& (0+255),w,b
  2145  0003A2  A4D8               	btfss	status,2,c
  2146  0003A4  D008               	goto	l3428
  2147                           
  2148                           ; BSR set to: 0
  2149                           ;main.c: 214:                 sendString("Turn on motor\n");
  2150  0003A6  0EF0               	movlw	low STR_40
  2151  0003A8  6E09               	movwf	sendString@str,c
  2152  0003AA  0E7F               	movlw	high STR_40
  2153  0003AC  6E0A               	movwf	sendString@str+1,c
  2154  0003AE  EC3B  F008         	call	_sendString	;wreg free
  2155                           
  2156                           ;main.c: 215:                 command = 'o';
  2157  0003B2  0E6F               	movlw	111
  2158  0003B4  D017               	goto	L5
  2159  0003B6                     l3428:
  2160                           
  2161                           ; BSR set to: 0
  2162  0003B6  0E66               	movlw	102
  2163  0003B8  1974               	xorwf	_userIn& (0+255),w,b
  2164  0003BA  A4D8               	btfss	status,2,c
  2165  0003BC  D008               	goto	l3434
  2166                           
  2167                           ; BSR set to: 0
  2168                           ;main.c: 217:                 sendString("Turn off motor\n");
  2169  0003BE  0EE0               	movlw	low STR_41
  2170  0003C0  6E09               	movwf	sendString@str,c
  2171  0003C2  0E7F               	movlw	high STR_41
  2172  0003C4  6E0A               	movwf	sendString@str+1,c
  2173  0003C6  EC3B  F008         	call	_sendString	;wreg free
  2174                           
  2175                           ;main.c: 218:                 command = 'f';
  2176  0003CA  0E66               	movlw	102
  2177  0003CC  D00B               	goto	L5
  2178  0003CE                     l3434:
  2179                           
  2180                           ; BSR set to: 0
  2181  0003CE  0E6B               	movlw	107
  2182  0003D0  1974               	xorwf	_userIn& (0+255),w,b
  2183  0003D2  A4D8               	btfss	status,2,c
  2184  0003D4  D009               	goto	l444
  2185                           
  2186                           ; BSR set to: 0
  2187                           ;main.c: 220:                 sendString("Keep current speed\n");
  2188  0003D6  0EAA               	movlw	low STR_42
  2189  0003D8  6E09               	movwf	sendString@str,c
  2190  0003DA  0E7F               	movlw	high STR_42
  2191  0003DC  6E0A               	movwf	sendString@str+1,c
  2192  0003DE  EC3B  F008         	call	_sendString	;wreg free
  2193                           
  2194                           ;main.c: 221:                 command = 'k';
  2195  0003E2  0E6B               	movlw	107
  2196  0003E4                     L5:
  2197  0003E4  0100               	movlb	0	; () banked
  2198  0003E6  6F88               	movwf	_command& (0+255),b
  2199  0003E8                     l444:
  2200                           
  2201                           ;main.c: 223:             I2C1_MasterWrite(&command, length, 0x08, &w_status);
  2202                           
  2203                           ; BSR set to: 0
  2204  0003E8  0E88               	movlw	low _command
  2205  0003EA  6E11               	movwf	I2C1_MasterWrite@pdata,c
  2206  0003EC  0E00               	movlw	high _command
  2207  0003EE  6E12               	movwf	I2C1_MasterWrite@pdata+1,c
  2208  0003F0  C076  F013         	movff	_length,I2C1_MasterWrite@length
  2209  0003F4  0E00               	movlw	0
  2210  0003F6  6E15               	movwf	I2C1_MasterWrite@address+1,c
  2211  0003F8  0E08               	movlw	8
  2212  0003FA  6E14               	movwf	I2C1_MasterWrite@address,c
  2213  0003FC  0E8A               	movlw	low _w_status
  2214  0003FE  6E16               	movwf	I2C1_MasterWrite@pflag,c
  2215  000400  0E00               	movlw	high _w_status
  2216  000402  6E17               	movwf	I2C1_MasterWrite@pflag+1,c
  2217  000404  ECB4  F008         	call	_I2C1_MasterWrite	;wreg free
  2218  000408                     l3442:
  2219                           
  2220                           ;main.c: 226:         _delay((unsigned long)((10)*(1000000/4000.0)));
  2221  000408  0E04               	movlw	4
  2222  00040A  0100               	movlb	0	; () banked
  2223  00040C  6FAE               	movwf	??_main& (0+255),b
  2224  00040E  0E3D               	movlw	61
  2225  000410                     u2777:
  2226  000410  2EE8               	decfsz	wreg,f,c
  2227  000412  D7FE               	bra	u2777
  2228  000414  2FAE               	decfsz	??_main& (0+255),f,b
  2229  000416  D7FC               	bra	u2777
  2230  000418  D000               	nop2	
  2231  00041A  D62A               	goto	l3266
  2232  00041C                     __end_of_main:
  2233                           	opt callstack 0
  2234                           
  2235 ;; *************** function _statusReport *****************
  2236 ;; Defined at:
  2237 ;;		line 75 in file "main.c"
  2238 ;; Parameters:    Size  Location     Type
  2239 ;;		None
  2240 ;; Auto vars:     Size  Location     Type
  2241 ;;  buffer         80    0[BANK1 ] unsigned char [80]
  2242 ;; Return value:  Size  Location     Type
  2243 ;;                  1    wreg      void 
  2244 ;; Registers used:
  2245 ;;		wreg, fsr1l, fsr1h, fsr2l, fsr2h, status,2, status,0, tblptrl, tblptrh, tblptru, cstack
  2246 ;; Tracked objects:
  2247 ;;		On entry : 0/0
  2248 ;;		On exit  : 0/0
  2249 ;;		Unchanged: 0/0
  2250 ;; Data sizes:     COMRAM   BANK0   BANK1   BANK2   BANK3   BANK4   BANK5
  2251 ;;      Params:         0       0       0       0       0       0       0
  2252 ;;      Locals:         0       0      80       0       0       0       0
  2253 ;;      Temps:          0       0       0       0       0       0       0
  2254 ;;      Totals:         0       0      80       0       0       0       0
  2255 ;;Total ram usage:       80 bytes
  2256 ;; Hardware stack levels used:    1
  2257 ;; Hardware stack levels required when called:   12
  2258 ;; This function calls:
  2259 ;;		_sendString
  2260 ;;		_sprintf
  2261 ;; This function is called by:
  2262 ;;		_main
  2263 ;; This function uses a non-reentrant model
  2264 ;;
  2265                           
  2266                           	psect	text1
  2267  000D00                     __ptext1:
  2268                           	opt callstack 0
  2269  000D00                     _statusReport:
  2270                           	opt callstack 18
  2271                           
  2272                           ;main.c: 76:     char buffer[80];;main.c: 77:     sendString("//////////////////////////
      +                          //////////////////////////////////////////////////////\n");
  2273                           
  2274                           ;incstack = 0
  2275  000D00  0EF7               	movlw	low STR_1
  2276  000D02  6E09               	movwf	sendString@str,c
  2277  000D04  0E7C               	movlw	high STR_1
  2278  000D06  6E0A               	movwf	sendString@str+1,c
  2279  000D08  EC3B  F008         	call	_sendString	;wreg free
  2280                           
  2281                           ;main.c: 78:     sendString("////////\n");
  2282  000D0C  0E3F               	movlw	low (STR_1+72)
  2283  000D0E  6E09               	movwf	sendString@str,c
  2284  000D10  0E7D               	movlw	high (STR_1+72)
  2285  000D12  6E0A               	movwf	sendString@str+1,c
  2286  000D14  EC3B  F008         	call	_sendString	;wreg free
  2287                           
  2288                           ;main.c: 79:     sprintf(buffer, "////////   Set Position: %d  \n", x);
  2289  000D18  0E00               	movlw	low statusReport@buffer
  2290  000D1A  0100               	movlb	0	; () banked
  2291  000D1C  6F9E               	movwf	sprintf@s& (0+255),b
  2292  000D1E  0E01               	movlw	high statusReport@buffer
  2293  000D20  6F9F               	movwf	(sprintf@s+1)& (0+255),b
  2294  000D22  0E99               	movlw	low STR_3
  2295  000D24  6FA0               	movwf	sprintf@fmt& (0+255),b
  2296  000D26  0E7E               	movlw	high STR_3
  2297  000D28  6FA1               	movwf	(sprintf@fmt+1)& (0+255),b
  2298  000D2A  C073  F0A2         	movff	_x,?_sprintf+4
  2299  000D2E  6BA3               	clrf	(?_sprintf+5)& (0+255),b
  2300  000D30  EC12  F008         	call	_sprintf	;wreg free
  2301                           
  2302                           ;main.c: 80:     sendString(buffer);
  2303  000D34  0E00               	movlw	low statusReport@buffer
  2304  000D36  6E09               	movwf	sendString@str,c
  2305  000D38  0E01               	movlw	high statusReport@buffer
  2306  000D3A  6E0A               	movwf	sendString@str+1,c
  2307  000D3C  EC3B  F008         	call	_sendString	;wreg free
  2308                           
  2309                           ;main.c: 81:     sendString("////////\n");
  2310  000D40  0E3F               	movlw	low (STR_1+72)
  2311  000D42  6E09               	movwf	sendString@str,c
  2312  000D44  0E7D               	movlw	high (STR_1+72)
  2313  000D46  6E0A               	movwf	sendString@str+1,c
  2314  000D48  EC3B  F008         	call	_sendString	;wreg free
  2315                           
  2316                           ;main.c: 82:     sprintf(buffer, "////////   Warning Level: %c  \n", level);
  2317  000D4C  0E00               	movlw	low statusReport@buffer
  2318  000D4E  0100               	movlb	0	; () banked
  2319  000D50  6F9E               	movwf	sprintf@s& (0+255),b
  2320  000D52  0E01               	movlw	high statusReport@buffer
  2321  000D54  6F9F               	movwf	(sprintf@s+1)& (0+255),b
  2322  000D56  0E5A               	movlw	low STR_5
  2323  000D58  6FA0               	movwf	sprintf@fmt& (0+255),b
  2324  000D5A  0E7E               	movlw	high STR_5
  2325  000D5C  6FA1               	movwf	(sprintf@fmt+1)& (0+255),b
  2326  000D5E  C087  F0A2         	movff	_level,?_sprintf+4
  2327  000D62  6BA3               	clrf	(?_sprintf+5)& (0+255),b
  2328  000D64  EC12  F008         	call	_sprintf	;wreg free
  2329                           
  2330                           ;main.c: 83:     sendString(buffer);
  2331  000D68  0E00               	movlw	low statusReport@buffer
  2332  000D6A  6E09               	movwf	sendString@str,c
  2333  000D6C  0E01               	movlw	high statusReport@buffer
  2334  000D6E  6E0A               	movwf	sendString@str+1,c
  2335  000D70  EC3B  F008         	call	_sendString	;wreg free
  2336                           
  2337                           ;main.c: 84:     sendString("////////\n");
  2338  000D74  0E3F               	movlw	low (STR_1+72)
  2339  000D76  6E09               	movwf	sendString@str,c
  2340  000D78  0E7D               	movlw	high (STR_1+72)
  2341  000D7A  6E0A               	movwf	sendString@str+1,c
  2342  000D7C  EC3B  F008         	call	_sendString	;wreg free
  2343                           
  2344                           ;main.c: 85:     sendString("////////   Please choose following command:   \n");
  2345  000D80  0E7E               	movlw	low STR_7
  2346  000D82  6E09               	movwf	sendString@str,c
  2347  000D84  0E7D               	movlw	high STR_7
  2348  000D86  6E0A               	movwf	sendString@str+1,c
  2349  000D88  EC3B  F008         	call	_sendString	;wreg free
  2350                           
  2351                           ;main.c: 86:     sendString("////////\n");
  2352  000D8C  0E3F               	movlw	low (STR_1+72)
  2353  000D8E  6E09               	movwf	sendString@str,c
  2354  000D90  0E7D               	movlw	high (STR_1+72)
  2355  000D92  6E0A               	movwf	sendString@str+1,c
  2356  000D94  EC3B  F008         	call	_sendString	;wreg free
  2357                           
  2358                           ;main.c: 87:     sendString("////////      Motor ON <o>   \n");
  2359  000D98  0E7A               	movlw	low STR_9
  2360  000D9A  6E09               	movwf	sendString@str,c
  2361  000D9C  0E7E               	movlw	high STR_9
  2362  000D9E  6E0A               	movwf	sendString@str+1,c
  2363  000DA0  EC3B  F008         	call	_sendString	;wreg free
  2364                           
  2365                           ;main.c: 88:     sendString("////////      Motor OFF <f>   \n");
  2366  000DA4  0E3A               	movlw	low STR_10
  2367  000DA6  6E09               	movwf	sendString@str,c
  2368  000DA8  0E7E               	movlw	high STR_10
  2369  000DAA  6E0A               	movwf	sendString@str+1,c
  2370  000DAC  EC3B  F008         	call	_sendString	;wreg free
  2371                           
  2372                           ;main.c: 89:     sendString("////////      Set Point <s> (scaled from 1 to 9)   \n");
  2373  000DB0  0E49               	movlw	low STR_11
  2374  000DB2  6E09               	movwf	sendString@str,c
  2375  000DB4  0E7D               	movlw	high STR_11
  2376  000DB6  6E0A               	movwf	sendString@str+1,c
  2377  000DB8  EC3B  F008         	call	_sendString	;wreg free
  2378                           
  2379                           ;main.c: 90:     sendString("////////      Speed Increase <i>   \n");
  2380  000DBC  0ED3               	movlw	low STR_12
  2381  000DBE  6E09               	movwf	sendString@str,c
  2382  000DC0  0E7D               	movlw	high STR_12
  2383  000DC2  6E0A               	movwf	sendString@str+1,c
  2384  000DC4  EC3B  F008         	call	_sendString	;wreg free
  2385                           
  2386                           ;main.c: 91:     sendString("////////      Speed Decrease <d>   \n");
  2387  000DC8  0EAE               	movlw	low STR_13
  2388  000DCA  6E09               	movwf	sendString@str,c
  2389  000DCC  0E7D               	movlw	high STR_13
  2390  000DCE  6E0A               	movwf	sendString@str+1,c
  2391  000DD0  EC3B  F008         	call	_sendString	;wreg free
  2392                           
  2393                           ;main.c: 92:     sendString("////////      Keep Speed <k>   \n");
  2394  000DD4  0EF8               	movlw	low STR_14
  2395  000DD6  6E09               	movwf	sendString@str,c
  2396  000DD8  0E7D               	movlw	high STR_14
  2397  000DDA  6E0A               	movwf	sendString@str+1,c
  2398  000DDC  EC3B  F008         	call	_sendString	;wreg free
  2399                           
  2400                           ;main.c: 93:     sendString("////////\n");
  2401  000DE0  0E3F               	movlw	low (STR_1+72)
  2402  000DE2  6E09               	movwf	sendString@str,c
  2403  000DE4  0E7D               	movlw	high (STR_1+72)
  2404  000DE6  6E0A               	movwf	sendString@str+1,c
  2405  000DE8  EC3B  F008         	call	_sendString	;wreg free
  2406                           
  2407                           ;main.c: 94:     sendString("///////////////////////////////////////////////////////////
      +                          /////////////////////\n");
  2408  000DEC  0EF7               	movlw	low STR_1
  2409  000DEE  6E09               	movwf	sendString@str,c
  2410  000DF0  0E7C               	movlw	high STR_1
  2411  000DF2  6E0A               	movwf	sendString@str+1,c
  2412  000DF4  EC3B  F008         	call	_sendString	;wreg free
  2413  000DF8  0012               	return		;funcret
  2414  000DFA                     __end_of_statusReport:
  2415                           	opt callstack 0
  2416                           
  2417 ;; *************** function _sprintf *****************
  2418 ;; Defined at:
  2419 ;;		line 9 in file "C:\Program Files (x86)\Microchip\xc8\v2.05\pic\sources\c99\common\nf_sprintf.c"
  2420 ;; Parameters:    Size  Location     Type
  2421 ;;  s               2   19[BANK0 ] PTR unsigned char 
  2422 ;;		 -> statusReport@buffer(80), 
  2423 ;;  fmt             2   21[BANK0 ] PTR const unsigned char 
  2424 ;;		 -> STR_5(32), STR_3(31), 
  2425 ;; Auto vars:     Size  Location     Type
  2426 ;;  f               6   29[BANK0 ] struct _IO_FILE
  2427 ;;  ap              2   27[BANK0 ] PTR void [1]
  2428 ;;		 -> ?_sprintf(2), 
  2429 ;;  ret             2    0        int 
  2430 ;; Return value:  Size  Location     Type
  2431 ;;                  2   19[BANK0 ] int 
  2432 ;; Registers used:
  2433 ;;		wreg, fsr1l, fsr1h, fsr2l, fsr2h, status,2, status,0, tblptrl, tblptrh, tblptru, cstack
  2434 ;; Tracked objects:
  2435 ;;		On entry : 0/0
  2436 ;;		On exit  : 0/0
  2437 ;;		Unchanged: 0/0
  2438 ;; Data sizes:     COMRAM   BANK0   BANK1   BANK2   BANK3   BANK4   BANK5
  2439 ;;      Params:         0       6       0       0       0       0       0
  2440 ;;      Locals:         0      10       0       0       0       0       0
  2441 ;;      Temps:          0       0       0       0       0       0       0
  2442 ;;      Totals:         0      16       0       0       0       0       0
  2443 ;;Total ram usage:       16 bytes
  2444 ;; Hardware stack levels used:    1
  2445 ;; Hardware stack levels required when called:   11
  2446 ;; This function calls:
  2447 ;;		_vfprintf
  2448 ;; This function is called by:
  2449 ;;		_statusReport
  2450 ;; This function uses a non-reentrant model
  2451 ;;
  2452                           
  2453                           	psect	text2
  2454  001024                     __ptext2:
  2455                           	opt callstack 0
  2456  001024                     _sprintf:
  2457                           	opt callstack 18
  2458                           
  2459                           ;incstack = 0
  2460  001024  0EA2               	movlw	low (?_sprintf+4)
  2461  001026  0100               	movlb	0	; () banked
  2462  001028  6FA6               	movwf	sprintf@ap& (0+255),b
  2463  00102A  0E00               	movlw	high (?_sprintf+4)
  2464  00102C  6FA7               	movwf	(sprintf@ap+1)& (0+255),b
  2465  00102E  C09E  F0A8         	movff	sprintf@s,sprintf@f
  2466  001032  C09F  F0A9         	movff	sprintf@s+1,sprintf@f+1
  2467                           
  2468                           ; BSR set to: 0
  2469  001036  0E00               	movlw	0
  2470  001038  6FAB               	movwf	(sprintf@f+3)& (0+255),b
  2471  00103A  0E00               	movlw	0
  2472  00103C  6FAA               	movwf	(sprintf@f+2)& (0+255),b
  2473                           
  2474                           ; BSR set to: 0
  2475  00103E  0E00               	movlw	0
  2476  001040  6FAD               	movwf	(sprintf@f+5)& (0+255),b
  2477  001042  0E00               	movlw	0
  2478  001044  6FAC               	movwf	(sprintf@f+4)& (0+255),b
  2479                           
  2480                           ; BSR set to: 0
  2481  001046  0EA8               	movlw	low sprintf@f
  2482  001048  6F96               	movwf	vfprintf@fp& (0+255),b
  2483  00104A  0E00               	movlw	high sprintf@f
  2484  00104C  6F97               	movwf	(vfprintf@fp+1)& (0+255),b
  2485  00104E  C0A0  F098         	movff	sprintf@fmt,vfprintf@fmt
  2486  001052  C0A1  F099         	movff	sprintf@fmt+1,vfprintf@fmt+1
  2487  001056  0EA6               	movlw	low sprintf@ap
  2488  001058  6F9A               	movwf	vfprintf@ap& (0+255),b
  2489  00105A  0E00               	movlw	high sprintf@ap
  2490  00105C  6F9B               	movwf	(vfprintf@ap+1)& (0+255),b
  2491  00105E  ECE7  F007         	call	_vfprintf	;wreg free
  2492  001062  0100               	movlb	0	; () banked
  2493  001064  51AA               	movf	(sprintf@f+2)& (0+255),w,b
  2494  001066  259E               	addwf	sprintf@s& (0+255),w,b
  2495  001068  6ED9               	movwf	fsr2l,c
  2496  00106A  51AB               	movf	(sprintf@f+3)& (0+255),w,b
  2497  00106C  219F               	addwfc	(sprintf@s+1)& (0+255),w,b
  2498  00106E  6EDA               	movwf	fsr2h,c
  2499  001070  0E00               	movlw	0
  2500  001072  6EDF               	movwf	indf2,c
  2501                           
  2502                           ; BSR set to: 0
  2503  001074  0012               	return		;funcret
  2504  001076                     __end_of_sprintf:
  2505                           	opt callstack 0
  2506                           
  2507 ;; *************** function _vfprintf *****************
  2508 ;; Defined at:
  2509 ;;		line 1368 in file "C:\Program Files (x86)\Microchip\xc8\v2.05\pic\sources\c99\common\doprnt.c"
  2510 ;; Parameters:    Size  Location     Type
  2511 ;;  fp              2   11[BANK0 ] PTR struct _IO_FILE
  2512 ;;		 -> sprintf@f(6), 
  2513 ;;  fmt             2   13[BANK0 ] PTR const unsigned char 
  2514 ;;		 -> STR_5(32), STR_3(31), 
  2515 ;;  ap              2   15[BANK0 ] PTR PTR void 
  2516 ;;		 -> sprintf@ap(2), 
  2517 ;; Auto vars:     Size  Location     Type
  2518 ;;  cfmt            2   17[BANK0 ] PTR unsigned char 
  2519 ;;		 -> STR_5(32), STR_3(31), 
  2520 ;; Return value:  Size  Location     Type
  2521 ;;                  2   11[BANK0 ] int 
  2522 ;; Registers used:
  2523 ;;		wreg, fsr1l, fsr1h, fsr2l, fsr2h, status,2, status,0, tblptrl, tblptrh, tblptru, cstack
  2524 ;; Tracked objects:
  2525 ;;		On entry : 0/0
  2526 ;;		On exit  : 0/0
  2527 ;;		Unchanged: 0/0
  2528 ;; Data sizes:     COMRAM   BANK0   BANK1   BANK2   BANK3   BANK4   BANK5
  2529 ;;      Params:         0       6       0       0       0       0       0
  2530 ;;      Locals:         0       2       0       0       0       0       0
  2531 ;;      Temps:          0       0       0       0       0       0       0
  2532 ;;      Totals:         0       8       0       0       0       0       0
  2533 ;;Total ram usage:        8 bytes
  2534 ;; Hardware stack levels used:    1
  2535 ;; Hardware stack levels required when called:   10
  2536 ;; This function calls:
  2537 ;;		_vfpfcnvrt
  2538 ;; This function is called by:
  2539 ;;		_sprintf
  2540 ;; This function uses a non-reentrant model
  2541 ;;
  2542                           
  2543                           	psect	text3
  2544  000FCE                     __ptext3:
  2545                           	opt callstack 0
  2546  000FCE                     _vfprintf:
  2547                           	opt callstack 18
  2548                           
  2549                           ;C:\Program Files (x86)\Microchip\xc8\v2.05\pic\sources\c99\common\doprnt.c: 1368: int v
      +                          fprintf(FILE *fp, const char *fmt, va_list ap);C:\Program Files (x86)\Microchip\xc8\v2.0
      +                          5\pic\sources\c99\common\doprnt.c: 1369: {;C:\Program Files (x86)\Microchip\xc8\v2.05\pi
      +                          c\sources\c99\common\doprnt.c: 1371:     char *cfmt;;C:\Program Files (x86)\Microchip\xc
      +                          8\v2.05\pic\sources\c99\common\doprnt.c: 1373:     cfmt = (char *)fmt;
  2550                           
  2551                           ; BSR set to: 0
  2552                           ;incstack = 0
  2553  000FCE  C098  F09C         	movff	vfprintf@fmt,vfprintf@cfmt
  2554  000FD2  C099  F09D         	movff	vfprintf@fmt+1,vfprintf@cfmt+1
  2555                           
  2556                           ;C:\Program Files (x86)\Microchip\xc8\v2.05\pic\sources\c99\common\doprnt.c: 1374:     n
      +                          out = 0;
  2557  000FD6  0E00               	movlw	0
  2558  000FD8  0100               	movlb	0	; () banked
  2559  000FDA  6F68               	movwf	(_nout+1)& (0+255),b
  2560  000FDC  0E00               	movlw	0
  2561  000FDE  6F67               	movwf	_nout& (0+255),b
  2562                           
  2563                           ;C:\Program Files (x86)\Microchip\xc8\v2.05\pic\sources\c99\common\doprnt.c: 1375:     w
      +                          hile (*cfmt) {
  2564  000FE0  D013               	goto	l3218
  2565  000FE2                     l3216:
  2566                           
  2567                           ; BSR set to: 0
  2568                           ;C:\Program Files (x86)\Microchip\xc8\v2.05\pic\sources\c99\common\doprnt.c: 1376:      
      +                             nout += vfpfcnvrt(fp, &cfmt, ap);
  2569  000FE2  C096  F049         	movff	vfprintf@fp,vfpfcnvrt@fp
  2570  000FE6  C097  F04A         	movff	vfprintf@fp+1,vfpfcnvrt@fp+1
  2571  000FEA  0E9C               	movlw	low vfprintf@cfmt
  2572  000FEC  6E4B               	movwf	vfpfcnvrt@fmt,c
  2573  000FEE  0E00               	movlw	high vfprintf@cfmt
  2574  000FF0  6E4C               	movwf	vfpfcnvrt@fmt+1,c
  2575  000FF2  C09A  F04D         	movff	vfprintf@ap,vfpfcnvrt@ap
  2576  000FF6  C09B  F04E         	movff	vfprintf@ap+1,vfpfcnvrt@ap+1
  2577  000FFA  EC56  F004         	call	_vfpfcnvrt	;wreg free
  2578  000FFE  5049               	movf	?_vfpfcnvrt,w,c
  2579  001000  0100               	movlb	0	; () banked
  2580  001002  2767               	addwf	_nout& (0+255),f,b
  2581  001004  504A               	movf	?_vfpfcnvrt+1,w,c
  2582  001006  2368               	addwfc	(_nout+1)& (0+255),f,b
  2583  001008                     l3218:
  2584                           
  2585                           ; BSR set to: 0
  2586                           ;C:\Program Files (x86)\Microchip\xc8\v2.05\pic\sources\c99\common\doprnt.c: 1375:     w
      +                          hile (*cfmt) {
  2587  001008  C09C  FFF6         	movff	vfprintf@cfmt,tblptrl
  2588  00100C  C09D  FFF7         	movff	vfprintf@cfmt+1,tblptrh
  2589  001010                     	if	0	;tblptru may be non-zero
  2590  001010                     	endif
  2591  001010                     	if	0	;tblptru may be non-zero
  2592  001010                     	endif
  2593  001010  0008               	tblrd		*
  2594  001012  50F5               	movf	tablat,w,c
  2595  001014  0900               	iorlw	0
  2596  001016  A4D8               	btfss	status,2,c
  2597  001018  D7E4               	goto	l3216
  2598                           
  2599                           ; BSR set to: 0
  2600                           ;C:\Program Files (x86)\Microchip\xc8\v2.05\pic\sources\c99\common\doprnt.c: 1378:     r
      +                          eturn nout;
  2601  00101A  C067  F096         	movff	_nout,?_vfprintf
  2602  00101E  C068  F097         	movff	_nout+1,?_vfprintf+1
  2603                           
  2604                           ; BSR set to: 0
  2605  001022  0012               	return		;funcret
  2606  001024                     __end_of_vfprintf:
  2607                           	opt callstack 0
  2608                           
  2609 ;; *************** function _vfpfcnvrt *****************
  2610 ;; Defined at:
  2611 ;;		line 670 in file "C:\Program Files (x86)\Microchip\xc8\v2.05\pic\sources\c99\common\doprnt.c"
  2612 ;; Parameters:    Size  Location     Type
  2613 ;;  fp              2   72[COMRAM] PTR struct _IO_FILE
  2614 ;;		 -> sprintf@f(6), 
  2615 ;;  fmt             2   74[COMRAM] PTR PTR unsigned char 
  2616 ;;		 -> vfprintf@cfmt(2), 
  2617 ;;  ap              2   76[COMRAM] PTR PTR void 
  2618 ;;		 -> sprintf@ap(2), 
  2619 ;; Auto vars:     Size  Location     Type
  2620 ;;  ll              8    2[BANK0 ] long long 
  2621 ;;  llu             8    0        unsigned long long 
  2622 ;;  f               4    0        unsigned long long 
  2623 ;;  vp              3    0        PTR void 
  2624 ;;  ct              3    0        unsigned char [3]
  2625 ;;  cp              3    0        PTR unsigned char 
  2626 ;;  i               2    0        int 
  2627 ;;  done            2    0        int 
  2628 ;;  c               1   10[BANK0 ] unsigned char 
  2629 ;; Return value:  Size  Location     Type
  2630 ;;                  2   72[COMRAM] int 
  2631 ;; Registers used:
  2632 ;;		wreg, fsr1l, fsr1h, fsr2l, fsr2h, status,2, status,0, tblptrl, tblptrh, tblptru, cstack
  2633 ;; Tracked objects:
  2634 ;;		On entry : 0/0
  2635 ;;		On exit  : 0/0
  2636 ;;		Unchanged: 0/0
  2637 ;; Data sizes:     COMRAM   BANK0   BANK1   BANK2   BANK3   BANK4   BANK5
  2638 ;;      Params:         6       0       0       0       0       0       0
  2639 ;;      Locals:         0       9       0       0       0       0       0
  2640 ;;      Temps:          0       2       0       0       0       0       0
  2641 ;;      Totals:         6      11       0       0       0       0       0
  2642 ;;Total ram usage:       17 bytes
  2643 ;; Hardware stack levels used:    1
  2644 ;; Hardware stack levels required when called:    9
  2645 ;; This function calls:
  2646 ;;		_ctoa
  2647 ;;		_dtoa
  2648 ;;		_fputc
  2649 ;; This function is called by:
  2650 ;;		_vfprintf
  2651 ;; This function uses a non-reentrant model
  2652 ;;
  2653                           
  2654                           	psect	text4
  2655  0008AC                     __ptext4:
  2656                           	opt callstack 0
  2657  0008AC                     _vfpfcnvrt:
  2658                           	opt callstack 18
  2659                           
  2660                           ;C:\Program Files (x86)\Microchip\xc8\v2.05\pic\sources\c99\common\doprnt.c: 670: static
      +                           int vfpfcnvrt(FILE *fp, char *fmt[], va_list ap);C:\Program Files (x86)\Microchip\xc8\v
      +                          2.05\pic\sources\c99\common\doprnt.c: 671: {;C:\Program Files (x86)\Microchip\xc8\v2.05\
      +                          pic\sources\c99\common\doprnt.c: 672:     char c, *cp, ct[3];;C:\Program Files (x86)\Mic
      +                          rochip\xc8\v2.05\pic\sources\c99\common\doprnt.c: 673:     int done, i;;C:\Program Files
      +                           (x86)\Microchip\xc8\v2.05\pic\sources\c99\common\doprnt.c: 674:     long long ll;
  2661                           
  2662                           ; BSR set to: 0
  2663                           ;incstack = 0
  2664  0008AC  C04B  FFD9         	movff	vfpfcnvrt@fmt,fsr2l
  2665  0008B0  C04C  FFDA         	movff	vfpfcnvrt@fmt+1,fsr2h
  2666  0008B4  CFDE FFF6          	movff	postinc2,tblptrl
  2667  0008B8  CFDD FFF7          	movff	postdec2,tblptrh
  2668  0008BC                     	if	0	;tblptru may be non-zero
  2669  0008BC                     	endif
  2670  0008BC                     	if	0	;tblptru may be non-zero
  2671  0008BC                     	endif
  2672  0008BC  0008               	tblrd		*
  2673  0008BE  50F5               	movf	tablat,w,c
  2674  0008C0  0A25               	xorlw	37
  2675  0008C2  A4D8               	btfss	status,2,c
  2676  0008C4  D0CD               	goto	l3204
  2677                           
  2678                           ;C:\Program Files (x86)\Microchip\xc8\v2.05\pic\sources\c99\common\doprnt.c: 681:       
      +                            ++*fmt;
  2679  0008C6  C04B  FFD9         	movff	vfpfcnvrt@fmt,fsr2l
  2680  0008CA  C04C  FFDA         	movff	vfpfcnvrt@fmt+1,fsr2h
  2681  0008CE  2ADE               	incf	postinc2,f,c
  2682  0008D0  0E00               	movlw	0
  2683  0008D2  22DD               	addwfc	postdec2,f,c
  2684                           
  2685                           ;C:\Program Files (x86)\Microchip\xc8\v2.05\pic\sources\c99\common\doprnt.c: 683:       
      +                            flags = width = 0;
  2686  0008D4  0E00               	movlw	0
  2687  0008D6  0100               	movlb	0	; () banked
  2688  0008D8  6F6A               	movwf	(_width+1)& (0+255),b
  2689  0008DA  0E00               	movlw	0
  2690  0008DC  6F69               	movwf	_width& (0+255),b
  2691  0008DE  C069  F04F         	movff	_width,_flags
  2692  0008E2  C06A  F050         	movff	_width+1,_flags+1
  2693                           
  2694                           ; BSR set to: 0
  2695                           ;C:\Program Files (x86)\Microchip\xc8\v2.05\pic\sources\c99\common\doprnt.c: 684:       
      +                            prec = -1;
  2696  0008E6  696B               	setf	_prec& (0+255),b
  2697  0008E8  696C               	setf	(_prec+1)& (0+255),b
  2698                           
  2699                           ; BSR set to: 0
  2700                           ;C:\Program Files (x86)\Microchip\xc8\v2.05\pic\sources\c99\common\doprnt.c: 792:       
      +                            if (*fmt[0] == 'c') {
  2701  0008EA  C04B  FFD9         	movff	vfpfcnvrt@fmt,fsr2l
  2702  0008EE  C04C  FFDA         	movff	vfpfcnvrt@fmt+1,fsr2h
  2703  0008F2  CFDE FFF6          	movff	postinc2,tblptrl
  2704  0008F6  CFDD FFF7          	movff	postdec2,tblptrh
  2705  0008FA                     	if	0	;tblptru may be non-zero
  2706  0008FA                     	endif
  2707  0008FA                     	if	0	;tblptru may be non-zero
  2708  0008FA                     	endif
  2709  0008FA  0008               	tblrd		*
  2710  0008FC  50F5               	movf	tablat,w,c
  2711  0008FE  0A63               	xorlw	99
  2712  000900  A4D8               	btfss	status,2,c
  2713  000902  D026               	goto	l3178
  2714                           
  2715                           ; BSR set to: 0
  2716                           ;C:\Program Files (x86)\Microchip\xc8\v2.05\pic\sources\c99\common\doprnt.c: 793:       
      +                                ++*fmt;
  2717  000904  C04B  FFD9         	movff	vfpfcnvrt@fmt,fsr2l
  2718  000908  C04C  FFDA         	movff	vfpfcnvrt@fmt+1,fsr2h
  2719  00090C  2ADE               	incf	postinc2,f,c
  2720  00090E  0E00               	movlw	0
  2721  000910  22DD               	addwfc	postdec2,f,c
  2722                           
  2723                           ;C:\Program Files (x86)\Microchip\xc8\v2.05\pic\sources\c99\common\doprnt.c: 794:       
      +                                c = (unsigned char)(*(int *)__va_arg(*(int **)ap, (int)0));
  2724  000912  C04D  FFD9         	movff	vfpfcnvrt@ap,fsr2l
  2725  000916  C04E  FFDA         	movff	vfpfcnvrt@ap+1,fsr2h
  2726  00091A  CFDF F08B          	movff	indf2,??_vfpfcnvrt
  2727  00091E  0E02               	movlw	2
  2728  000920  26DE               	addwf	postinc2,f,c
  2729  000922  CFDF F08C          	movff	indf2,??_vfpfcnvrt+1
  2730  000926  0E00               	movlw	0
  2731  000928  22DD               	addwfc	postdec2,f,c
  2732  00092A  C08B  FFD9         	movff	??_vfpfcnvrt,fsr2l
  2733  00092E  C08C  FFDA         	movff	??_vfpfcnvrt+1,fsr2h
  2734  000932  50DF               	movf	indf2,w,c
  2735  000934  6F95               	movwf	vfpfcnvrt@c& (0+255),b
  2736                           
  2737                           ; BSR set to: 0
  2738                           ;C:\Program Files (x86)\Microchip\xc8\v2.05\pic\sources\c99\common\doprnt.c: 795:       
      +                                return ctoa(fp, c);
  2739  000936  C049  F025         	movff	vfpfcnvrt@fp,ctoa@fp
  2740  00093A  C04A  F026         	movff	vfpfcnvrt@fp+1,ctoa@fp+1
  2741  00093E  C095  F027         	movff	vfpfcnvrt@c,ctoa@c
  2742  000942  EC64  F008         	call	_ctoa	;wreg free
  2743  000946  C025  F049         	movff	?_ctoa,?_vfpfcnvrt
  2744  00094A  C026  F04A         	movff	?_ctoa+1,?_vfpfcnvrt+1
  2745  00094E  0012               	return	
  2746  000950                     l3178:
  2747                           
  2748                           ; BSR set to: 0
  2749                           ;C:\Program Files (x86)\Microchip\xc8\v2.05\pic\sources\c99\common\doprnt.c: 825:       
      +                            if ((*fmt[0] == 'd') || (*fmt[0] == 'i')) {
  2750  000950  C04B  FFD9         	movff	vfpfcnvrt@fmt,fsr2l
  2751  000954  C04C  FFDA         	movff	vfpfcnvrt@fmt+1,fsr2h
  2752  000958  CFDE FFF6          	movff	postinc2,tblptrl
  2753  00095C  CFDD FFF7          	movff	postdec2,tblptrh
  2754  000960                     	if	0	;tblptru may be non-zero
  2755  000960                     	endif
  2756  000960                     	if	0	;tblptru may be non-zero
  2757  000960                     	endif
  2758  000960  0008               	tblrd		*
  2759  000962  50F5               	movf	tablat,w,c
  2760  000964  0A64               	xorlw	100
  2761  000966  B4D8               	btfsc	status,2,c
  2762  000968  D00D               	goto	u2510
  2763                           
  2764                           ; BSR set to: 0
  2765  00096A  C04B  FFD9         	movff	vfpfcnvrt@fmt,fsr2l
  2766  00096E  C04C  FFDA         	movff	vfpfcnvrt@fmt+1,fsr2h
  2767  000972  CFDE FFF6          	movff	postinc2,tblptrl
  2768  000976  CFDD FFF7          	movff	postdec2,tblptrh
  2769  00097A                     	if	0	;tblptru may be non-zero
  2770  00097A                     	endif
  2771  00097A                     	if	0	;tblptru may be non-zero
  2772  00097A                     	endif
  2773  00097A  0008               	tblrd		*
  2774  00097C  50F5               	movf	tablat,w,c
  2775  00097E  0A69               	xorlw	105
  2776  000980  A4D8               	btfss	status,2,c
  2777  000982  D03F               	goto	l3188
  2778  000984                     u2510:
  2779                           
  2780                           ; BSR set to: 0
  2781                           ;C:\Program Files (x86)\Microchip\xc8\v2.05\pic\sources\c99\common\doprnt.c: 827:       
      +                                ++*fmt;
  2782  000984  C04B  FFD9         	movff	vfpfcnvrt@fmt,fsr2l
  2783  000988  C04C  FFDA         	movff	vfpfcnvrt@fmt+1,fsr2h
  2784  00098C  2ADE               	incf	postinc2,f,c
  2785  00098E  0E00               	movlw	0
  2786  000990  22DD               	addwfc	postdec2,f,c
  2787                           
  2788                           ;C:\Program Files (x86)\Microchip\xc8\v2.05\pic\sources\c99\common\doprnt.c: 828:       
      +                                ll = (long long)(*(int *)__va_arg(*(int **)ap, (int)0));
  2789  000992  C04D  FFD9         	movff	vfpfcnvrt@ap,fsr2l
  2790  000996  C04E  FFDA         	movff	vfpfcnvrt@ap+1,fsr2h
  2791  00099A  CFDF F08B          	movff	indf2,??_vfpfcnvrt
  2792  00099E  0E02               	movlw	2
  2793  0009A0  26DE               	addwf	postinc2,f,c
  2794  0009A2  CFDF F08C          	movff	indf2,??_vfpfcnvrt+1
  2795  0009A6  0E00               	movlw	0
  2796  0009A8  22DD               	addwfc	postdec2,f,c
  2797  0009AA  C08B  FFD9         	movff	??_vfpfcnvrt,fsr2l
  2798  0009AE  C08C  FFDA         	movff	??_vfpfcnvrt+1,fsr2h
  2799  0009B2  CFDE F08D          	movff	postinc2,vfpfcnvrt@ll
  2800  0009B6  CFDD F08E          	movff	postdec2,vfpfcnvrt@ll+1
  2801  0009BA  0E00               	movlw	0
  2802  0009BC  BF8E               	btfsc	(vfpfcnvrt@ll+1)& (0+255),7,b
  2803  0009BE  0EFF               	movlw	-1
  2804  0009C0  6F8F               	movwf	(vfpfcnvrt@ll+2)& (0+255),b
  2805  0009C2  6F90               	movwf	(vfpfcnvrt@ll+3)& (0+255),b
  2806  0009C4  6F91               	movwf	(vfpfcnvrt@ll+4)& (0+255),b
  2807  0009C6  6F92               	movwf	(vfpfcnvrt@ll+5)& (0+255),b
  2808  0009C8  6F93               	movwf	(vfpfcnvrt@ll+6)& (0+255),b
  2809  0009CA  6F94               	movwf	(vfpfcnvrt@ll+7)& (0+255),b
  2810                           
  2811                           ; BSR set to: 0
  2812                           ;C:\Program Files (x86)\Microchip\xc8\v2.05\pic\sources\c99\common\doprnt.c: 830:       
      +                                return dtoa(fp, ll);
  2813  0009CC  C049  F025         	movff	vfpfcnvrt@fp,dtoa@fp
  2814  0009D0  C04A  F026         	movff	vfpfcnvrt@fp+1,dtoa@fp+1
  2815  0009D4  C08D  F027         	movff	vfpfcnvrt@ll,dtoa@d
  2816  0009D8  C08E  F028         	movff	vfpfcnvrt@ll+1,dtoa@d+1
  2817  0009DC  C08F  F029         	movff	vfpfcnvrt@ll+2,dtoa@d+2
  2818  0009E0  C090  F02A         	movff	vfpfcnvrt@ll+3,dtoa@d+3
  2819  0009E4  C091  F02B         	movff	vfpfcnvrt@ll+4,dtoa@d+4
  2820  0009E8  C092  F02C         	movff	vfpfcnvrt@ll+5,dtoa@d+5
  2821  0009EC  C093  F02D         	movff	vfpfcnvrt@ll+6,dtoa@d+6
  2822  0009F0  C094  F02E         	movff	vfpfcnvrt@ll+7,dtoa@d+7
  2823  0009F4  EC34  F003         	call	_dtoa	;wreg free
  2824  0009F8  C025  F049         	movff	?_dtoa,?_vfpfcnvrt
  2825  0009FC  C026  F04A         	movff	?_dtoa+1,?_vfpfcnvrt+1
  2826  000A00  0012               	return	
  2827  000A02                     l3188:
  2828                           
  2829                           ; BSR set to: 0
  2830                           ;C:\Program Files (x86)\Microchip\xc8\v2.05\pic\sources\c99\common\doprnt.c: 1350:      
      +                             if ((*fmt)[0] == '%') {
  2831  000A02  C04B  FFD9         	movff	vfpfcnvrt@fmt,fsr2l
  2832  000A06  C04C  FFDA         	movff	vfpfcnvrt@fmt+1,fsr2h
  2833  000A0A  CFDE FFF6          	movff	postinc2,tblptrl
  2834  000A0E  CFDD FFF7          	movff	postdec2,tblptrh
  2835  000A12                     	if	0	;tblptru may be non-zero
  2836  000A12                     	endif
  2837  000A12                     	if	0	;tblptru may be non-zero
  2838  000A12                     	endif
  2839  000A12  0008               	tblrd		*
  2840  000A14  50F5               	movf	tablat,w,c
  2841  000A16  0A25               	xorlw	37
  2842  000A18  A4D8               	btfss	status,2,c
  2843  000A1A  D016               	goto	l3198
  2844                           
  2845                           ; BSR set to: 0
  2846                           ;C:\Program Files (x86)\Microchip\xc8\v2.05\pic\sources\c99\common\doprnt.c: 1351:      
      +                                 ++*fmt;
  2847  000A1C  C04B  FFD9         	movff	vfpfcnvrt@fmt,fsr2l
  2848  000A20  C04C  FFDA         	movff	vfpfcnvrt@fmt+1,fsr2h
  2849  000A24  2ADE               	incf	postinc2,f,c
  2850  000A26  0E00               	movlw	0
  2851  000A28  22DD               	addwfc	postdec2,f,c
  2852                           
  2853                           ; BSR set to: 0
  2854                           ;C:\Program Files (x86)\Microchip\xc8\v2.05\pic\sources\c99\common\doprnt.c: 1352:      
      +                                 fputc((int)'%', fp);
  2855  000A2A  0E00               	movlw	0
  2856  000A2C  6E0B               	movwf	fputc@c+1,c
  2857  000A2E  0E25               	movlw	37
  2858  000A30  6E0A               	movwf	fputc@c,c
  2859  000A32  C049  F00C         	movff	vfpfcnvrt@fp,fputc@fp
  2860  000A36  C04A  F00D         	movff	vfpfcnvrt@fp+1,fputc@fp+1
  2861  000A3A  ECFD  F006         	call	_fputc	;wreg free
  2862  000A3E                     l3194:
  2863                           
  2864                           ;C:\Program Files (x86)\Microchip\xc8\v2.05\pic\sources\c99\common\doprnt.c: 1353:      
      +                                 return 1;
  2865  000A3E  0E00               	movlw	0
  2866  000A40  6E4A               	movwf	?_vfpfcnvrt+1,c
  2867  000A42  0E01               	movlw	1
  2868  000A44  6E49               	movwf	?_vfpfcnvrt,c
  2869  000A46  0012               	return	
  2870  000A48                     l3198:
  2871                           
  2872                           ; BSR set to: 0
  2873                           ;C:\Program Files (x86)\Microchip\xc8\v2.05\pic\sources\c99\common\doprnt.c: 1357:      
      +                             ++*fmt;
  2874  000A48  C04B  FFD9         	movff	vfpfcnvrt@fmt,fsr2l
  2875  000A4C  C04C  FFDA         	movff	vfpfcnvrt@fmt+1,fsr2h
  2876  000A50  2ADE               	incf	postinc2,f,c
  2877  000A52  0E00               	movlw	0
  2878  000A54  22DD               	addwfc	postdec2,f,c
  2879                           
  2880                           ; BSR set to: 0
  2881                           ;C:\Program Files (x86)\Microchip\xc8\v2.05\pic\sources\c99\common\doprnt.c: 1358:      
      +                             return 0;
  2882  000A56  0E00               	movlw	0
  2883  000A58  6E4A               	movwf	?_vfpfcnvrt+1,c
  2884  000A5A  0E00               	movlw	0
  2885  000A5C  6E49               	movwf	?_vfpfcnvrt,c
  2886  000A5E  0012               	return	
  2887  000A60                     l3204:
  2888                           
  2889                           ;C:\Program Files (x86)\Microchip\xc8\v2.05\pic\sources\c99\common\doprnt.c: 1362:     f
      +                          putc((int)(*fmt)[0], fp);
  2890  000A60  C04B  FFD9         	movff	vfpfcnvrt@fmt,fsr2l
  2891  000A64  C04C  FFDA         	movff	vfpfcnvrt@fmt+1,fsr2h
  2892  000A68  CFDE FFF6          	movff	postinc2,tblptrl
  2893  000A6C  CFDD FFF7          	movff	postdec2,tblptrh
  2894  000A70                     	if	0	;tblptru may be non-zero
  2895  000A70                     	endif
  2896  000A70                     	if	0	;tblptru may be non-zero
  2897  000A70                     	endif
  2898  000A70  0008               	tblrd		*
  2899  000A72  50F5               	movf	tablat,w,c
  2900  000A74  6E0A               	movwf	fputc@c,c
  2901  000A76  6A0B               	clrf	fputc@c+1,c
  2902  000A78  C049  F00C         	movff	vfpfcnvrt@fp,fputc@fp
  2903  000A7C  C04A  F00D         	movff	vfpfcnvrt@fp+1,fputc@fp+1
  2904  000A80  ECFD  F006         	call	_fputc	;wreg free
  2905                           
  2906                           ;C:\Program Files (x86)\Microchip\xc8\v2.05\pic\sources\c99\common\doprnt.c: 1363:     +
      +                          +*fmt;
  2907  000A84  C04B  FFD9         	movff	vfpfcnvrt@fmt,fsr2l
  2908  000A88  C04C  FFDA         	movff	vfpfcnvrt@fmt+1,fsr2h
  2909  000A8C  2ADE               	incf	postinc2,f,c
  2910  000A8E  0E00               	movlw	0
  2911  000A90  22DD               	addwfc	postdec2,f,c
  2912  000A92  D7D5               	goto	l3194
  2913  000A94                     __end_of_vfpfcnvrt:
  2914                           	opt callstack 0
  2915                           
  2916 ;; *************** function _dtoa *****************
  2917 ;; Defined at:
  2918 ;;		line 274 in file "C:\Program Files (x86)\Microchip\xc8\v2.05\pic\sources\c99\common\doprnt.c"
  2919 ;; Parameters:    Size  Location     Type
  2920 ;;  fp              2   36[COMRAM] PTR struct _IO_FILE
  2921 ;;		 -> sprintf@f(6), 
  2922 ;;  d               8   38[COMRAM] long long 
  2923 ;; Auto vars:     Size  Location     Type
  2924 ;;  n               8   62[COMRAM] long long 
  2925 ;;  i               2   70[COMRAM] int 
  2926 ;;  s               2   60[COMRAM] int 
  2927 ;;  w               2   58[COMRAM] int 
  2928 ;;  p               2   56[COMRAM] int 
  2929 ;; Return value:  Size  Location     Type
  2930 ;;                  2   36[COMRAM] int 
  2931 ;; Registers used:
  2932 ;;		wreg, fsr1l, fsr1h, fsr2l, fsr2h, status,2, status,0, cstack
  2933 ;; Tracked objects:
  2934 ;;		On entry : 0/0
  2935 ;;		On exit  : 0/0
  2936 ;;		Unchanged: 0/0
  2937 ;; Data sizes:     COMRAM   BANK0   BANK1   BANK2   BANK3   BANK4   BANK5
  2938 ;;      Params:        10       0       0       0       0       0       0
  2939 ;;      Locals:        18       0       0       0       0       0       0
  2940 ;;      Temps:          8       0       0       0       0       0       0
  2941 ;;      Totals:        36       0       0       0       0       0       0
  2942 ;;Total ram usage:       36 bytes
  2943 ;; Hardware stack levels used:    1
  2944 ;; Hardware stack levels required when called:    8
  2945 ;; This function calls:
  2946 ;;		___aodiv
  2947 ;;		___aomod
  2948 ;;		_abs
  2949 ;;		_pad
  2950 ;; This function is called by:
  2951 ;;		_vfpfcnvrt
  2952 ;; This function uses a non-reentrant model
  2953 ;;
  2954                           
  2955                           	psect	text5
  2956  000668                     __ptext5:
  2957                           	opt callstack 0
  2958  000668                     _dtoa:
  2959                           	opt callstack 18
  2960                           
  2961                           ;C:\Program Files (x86)\Microchip\xc8\v2.05\pic\sources\c99\common\doprnt.c: 274: static
      +                           int dtoa(FILE *fp, long long d);C:\Program Files (x86)\Microchip\xc8\v2.05\pic\sources\
      +                          c99\common\doprnt.c: 275: {;C:\Program Files (x86)\Microchip\xc8\v2.05\pic\sources\c99\c
      +                          ommon\doprnt.c: 276:     int i, p, s, w;;C:\Program Files (x86)\Microchip\xc8\v2.05\pic\
      +                          sources\c99\common\doprnt.c: 277:     long long n;;C:\Program Files (x86)\Microchip\xc8\
      +                          v2.05\pic\sources\c99\common\doprnt.c: 280:     n = d;
  2962                           
  2963                           ;incstack = 0
  2964  000668  C027  F03F         	movff	dtoa@d,dtoa@n
  2965  00066C  C028  F040         	movff	dtoa@d+1,dtoa@n+1
  2966  000670  C029  F041         	movff	dtoa@d+2,dtoa@n+2
  2967  000674  C02A  F042         	movff	dtoa@d+3,dtoa@n+3
  2968  000678  C02B  F043         	movff	dtoa@d+4,dtoa@n+4
  2969  00067C  C02C  F044         	movff	dtoa@d+5,dtoa@n+5
  2970  000680  C02D  F045         	movff	dtoa@d+6,dtoa@n+6
  2971  000684  C02E  F046         	movff	dtoa@d+7,dtoa@n+7
  2972                           
  2973                           ;C:\Program Files (x86)\Microchip\xc8\v2.05\pic\sources\c99\common\doprnt.c: 281:     s 
      +                          = n < 0 ? 1 : 0;
  2974  000688  AE46               	btfss	dtoa@n+7,7,c
  2975  00068A  D002               	goto	u2330
  2976  00068C  0E01               	movlw	1
  2977  00068E  D001               	goto	u2340
  2978  000690                     u2330:
  2979  000690  0E00               	movlw	0
  2980  000692                     u2340:
  2981  000692  6E3D               	movwf	dtoa@s,c
  2982  000694  6A3E               	clrf	dtoa@s+1,c
  2983                           
  2984                           ;C:\Program Files (x86)\Microchip\xc8\v2.05\pic\sources\c99\common\doprnt.c: 282:     if
      +                           (s) {
  2985  000696  503D               	movf	dtoa@s,w,c
  2986  000698  103E               	iorwf	dtoa@s+1,w,c
  2987  00069A  B4D8               	btfsc	status,2,c
  2988  00069C  D010               	goto	l3106
  2989                           
  2990                           ;C:\Program Files (x86)\Microchip\xc8\v2.05\pic\sources\c99\common\doprnt.c: 283:       
      +                            n = -n;
  2991  00069E  1E46               	comf	dtoa@n+7,f,c
  2992  0006A0  1E45               	comf	dtoa@n+6,f,c
  2993  0006A2  1E44               	comf	dtoa@n+5,f,c
  2994  0006A4  1E43               	comf	dtoa@n+4,f,c
  2995  0006A6  1E42               	comf	dtoa@n+3,f,c
  2996  0006A8  1E41               	comf	dtoa@n+2,f,c
  2997  0006AA  1E40               	comf	dtoa@n+1,f,c
  2998  0006AC  6C3F               	negf	dtoa@n,c
  2999  0006AE  0E00               	movlw	0
  3000  0006B0  2240               	addwfc	dtoa@n+1,f,c
  3001  0006B2  2241               	addwfc	dtoa@n+2,f,c
  3002  0006B4  2242               	addwfc	dtoa@n+3,f,c
  3003  0006B6  2243               	addwfc	dtoa@n+4,f,c
  3004  0006B8  2244               	addwfc	dtoa@n+5,f,c
  3005  0006BA  2245               	addwfc	dtoa@n+6,f,c
  3006  0006BC  2246               	addwfc	dtoa@n+7,f,c
  3007  0006BE                     l3106:
  3008                           
  3009                           ;C:\Program Files (x86)\Microchip\xc8\v2.05\pic\sources\c99\common\doprnt.c: 287:     if
      +                           (!(prec < 0)) {
  3010  0006BE  0100               	movlb	0	; () banked
  3011  0006C0  AF6C               	btfss	(_prec+1)& (0+255),7,b
  3012                           
  3013                           ; BSR set to: 0
  3014                           ;C:\Program Files (x86)\Microchip\xc8\v2.05\pic\sources\c99\common\doprnt.c: 288:       
      +                            flags &= ~(1 << 1);
  3015  0006C2  924F               	bcf	_flags,1,c
  3016                           
  3017                           ; BSR set to: 0
  3018                           ;C:\Program Files (x86)\Microchip\xc8\v2.05\pic\sources\c99\common\doprnt.c: 290:     p 
      +                          = (0 < prec) ? prec : 1;
  3019  0006C4  BF6C               	btfsc	(_prec+1)& (0+255),7,b
  3020  0006C6  D005               	goto	u2370
  3021  0006C8  516C               	movf	(_prec+1)& (0+255),w,b
  3022  0006CA  E108               	bnz	l497
  3023  0006CC  056B               	decf	_prec& (0+255),w,b
  3024  0006CE  B0D8               	btfsc	status,0,c
  3025  0006D0  D005               	goto	l497
  3026  0006D2                     u2370:
  3027                           
  3028                           ; BSR set to: 0
  3029  0006D2  0E00               	movlw	0
  3030  0006D4  6E3A               	movwf	dtoa@p+1,c
  3031  0006D6  0E01               	movlw	1
  3032  0006D8  6E39               	movwf	dtoa@p,c
  3033  0006DA  D004               	goto	l499
  3034  0006DC                     l497:
  3035                           
  3036                           ; BSR set to: 0
  3037  0006DC  C06B  F039         	movff	_prec,dtoa@p
  3038  0006E0  C06C  F03A         	movff	_prec+1,dtoa@p+1
  3039  0006E4                     l499:
  3040                           
  3041                           ; BSR set to: 0
  3042                           ;C:\Program Files (x86)\Microchip\xc8\v2.05\pic\sources\c99\common\doprnt.c: 291:     w 
      +                          = width;
  3043  0006E4  C069  F03B         	movff	_width,dtoa@w
  3044  0006E8  C06A  F03C         	movff	_width+1,dtoa@w+1
  3045                           
  3046                           ; BSR set to: 0
  3047                           ;C:\Program Files (x86)\Microchip\xc8\v2.05\pic\sources\c99\common\doprnt.c: 292:     if
      +                           (s || (flags & (1 << 2))) {
  3048  0006EC  503D               	movf	dtoa@s,w,c
  3049  0006EE  103E               	iorwf	dtoa@s+1,w,c
  3050  0006F0  A4D8               	btfss	status,2,c
  3051  0006F2  D002               	goto	u2390
  3052                           
  3053                           ; BSR set to: 0
  3054  0006F4  A44F               	btfss	_flags,2,c
  3055  0006F6  D003               	goto	l3120
  3056  0006F8                     u2390:
  3057                           
  3058                           ; BSR set to: 0
  3059                           ;C:\Program Files (x86)\Microchip\xc8\v2.05\pic\sources\c99\common\doprnt.c: 293:       
      +                            --w;
  3060  0006F8  063B               	decf	dtoa@w,f,c
  3061  0006FA  A0D8               	btfss	status,0,c
  3062  0006FC  063C               	decf	dtoa@w+1,f,c
  3063  0006FE                     l3120:
  3064                           
  3065                           ; BSR set to: 0
  3066                           ;C:\Program Files (x86)\Microchip\xc8\v2.05\pic\sources\c99\common\doprnt.c: 297:     i 
      +                          = sizeof(dbuf) - 1;
  3067  0006FE  0E00               	movlw	0
  3068  000700  6E48               	movwf	dtoa@i+1,c
  3069  000702  0E1F               	movlw	31
  3070  000704  6E47               	movwf	dtoa@i,c
  3071                           
  3072                           ; BSR set to: 0
  3073                           ;C:\Program Files (x86)\Microchip\xc8\v2.05\pic\sources\c99\common\doprnt.c: 298:     db
      +                          uf[i] = '\0';
  3074  000706  0E00               	movlw	0
  3075  000708  0101               	movlb	1	; () banked
  3076  00070A  6F6F               	movwf	(_dbuf+31)& (0+255),b
  3077                           
  3078                           ;C:\Program Files (x86)\Microchip\xc8\v2.05\pic\sources\c99\common\doprnt.c: 299:     wh
      +                          ile (!(i < 1) && (n || (0 < p) || ((0 < w) && (flags & (1 << 1))))) {
  3079  00070C  D07C               	goto	l3134
  3080  00070E                     l3124:
  3081                           
  3082                           ;C:\Program Files (x86)\Microchip\xc8\v2.05\pic\sources\c99\common\doprnt.c: 300:       
      +                            --i;
  3083  00070E  0647               	decf	dtoa@i,f,c
  3084  000710  A0D8               	btfss	status,0,c
  3085  000712  0648               	decf	dtoa@i+1,f,c
  3086                           
  3087                           ;C:\Program Files (x86)\Microchip\xc8\v2.05\pic\sources\c99\common\doprnt.c: 301:       
      +                            dbuf[i] = '0' + abs(n % 10);
  3088  000714  0E50               	movlw	low _dbuf
  3089  000716  2447               	addwf	dtoa@i,w,c
  3090  000718  6ED9               	movwf	fsr2l,c
  3091  00071A  0E01               	movlw	high _dbuf
  3092  00071C  2048               	addwfc	dtoa@i+1,w,c
  3093  00071E  6EDA               	movwf	fsr2h,c
  3094  000720  C03F  F008         	movff	dtoa@n,___aomod@dividend
  3095  000724  C040  F009         	movff	dtoa@n+1,___aomod@dividend+1
  3096  000728  C041  F00A         	movff	dtoa@n+2,___aomod@dividend+2
  3097  00072C  C042  F00B         	movff	dtoa@n+3,___aomod@dividend+3
  3098  000730  C043  F00C         	movff	dtoa@n+4,___aomod@dividend+4
  3099  000734  C044  F00D         	movff	dtoa@n+5,___aomod@dividend+5
  3100  000738  C045  F00E         	movff	dtoa@n+6,___aomod@dividend+6
  3101  00073C  C046  F00F         	movff	dtoa@n+7,___aomod@dividend+7
  3102  000740  0E0A               	movlw	10
  3103  000742  6E10               	movwf	___aomod@divisor,c
  3104  000744  0E00               	movlw	0
  3105  000746  6E11               	movwf	___aomod@divisor+1,c
  3106  000748  0E00               	movlw	0
  3107  00074A  6E12               	movwf	___aomod@divisor+2,c
  3108  00074C  0E00               	movlw	0
  3109  00074E  6E13               	movwf	___aomod@divisor+3,c
  3110  000750  0E00               	movlw	0
  3111  000752  6E14               	movwf	___aomod@divisor+4,c
  3112  000754  0E00               	movlw	0
  3113  000756  6E15               	movwf	___aomod@divisor+5,c
  3114  000758  0E00               	movlw	0
  3115  00075A  6E16               	movwf	___aomod@divisor+6,c
  3116  00075C  0E00               	movlw	0
  3117  00075E  6E17               	movwf	___aomod@divisor+7,c
  3118  000760  ECEE  F005         	call	___aomod	;wreg free
  3119  000764  C008  F02F         	movff	?___aomod,??_dtoa
  3120  000768  C009  F030         	movff	?___aomod+1,??_dtoa+1
  3121  00076C  C00A  F031         	movff	?___aomod+2,??_dtoa+2
  3122  000770  C00B  F032         	movff	?___aomod+3,??_dtoa+3
  3123  000774  C00C  F033         	movff	?___aomod+4,??_dtoa+4
  3124  000778  C00D  F034         	movff	?___aomod+5,??_dtoa+5
  3125  00077C  C00E  F035         	movff	?___aomod+6,??_dtoa+6
  3126  000780  C00F  F036         	movff	?___aomod+7,??_dtoa+7
  3127  000784  C02F  F01A         	movff	??_dtoa,abs@a
  3128  000788  C031  F01B         	movff	??_dtoa+2,abs@a+1
  3129  00078C  ECCC  F009         	call	_abs	;wreg free
  3130  000790  501A               	movf	?_abs,w,c
  3131  000792  0F30               	addlw	48
  3132  000794  6EDF               	movwf	indf2,c
  3133                           
  3134                           ;C:\Program Files (x86)\Microchip\xc8\v2.05\pic\sources\c99\common\doprnt.c: 302:       
      +                            --p;
  3135  000796  0639               	decf	dtoa@p,f,c
  3136  000798  A0D8               	btfss	status,0,c
  3137  00079A  063A               	decf	dtoa@p+1,f,c
  3138                           
  3139                           ;C:\Program Files (x86)\Microchip\xc8\v2.05\pic\sources\c99\common\doprnt.c: 303:       
      +                            --w;
  3140  00079C  063B               	decf	dtoa@w,f,c
  3141  00079E  A0D8               	btfss	status,0,c
  3142  0007A0  063C               	decf	dtoa@w+1,f,c
  3143                           
  3144                           ;C:\Program Files (x86)\Microchip\xc8\v2.05\pic\sources\c99\common\doprnt.c: 304:       
      +                            n = n / 10;
  3145  0007A2  C03F  F008         	movff	dtoa@n,___aodiv@dividend
  3146  0007A6  C040  F009         	movff	dtoa@n+1,___aodiv@dividend+1
  3147  0007AA  C041  F00A         	movff	dtoa@n+2,___aodiv@dividend+2
  3148  0007AE  C042  F00B         	movff	dtoa@n+3,___aodiv@dividend+3
  3149  0007B2  C043  F00C         	movff	dtoa@n+4,___aodiv@dividend+4
  3150  0007B6  C044  F00D         	movff	dtoa@n+5,___aodiv@dividend+5
  3151  0007BA  C045  F00E         	movff	dtoa@n+6,___aodiv@dividend+6
  3152  0007BE  C046  F00F         	movff	dtoa@n+7,___aodiv@dividend+7
  3153  0007C2  0E0A               	movlw	10
  3154  0007C4  6E10               	movwf	___aodiv@divisor,c
  3155  0007C6  0E00               	movlw	0
  3156  0007C8  6E11               	movwf	___aodiv@divisor+1,c
  3157  0007CA  0E00               	movlw	0
  3158  0007CC  6E12               	movwf	___aodiv@divisor+2,c
  3159  0007CE  0E00               	movlw	0
  3160  0007D0  6E13               	movwf	___aodiv@divisor+3,c
  3161  0007D2  0E00               	movlw	0
  3162  0007D4  6E14               	movwf	___aodiv@divisor+4,c
  3163  0007D6  0E00               	movlw	0
  3164  0007D8  6E15               	movwf	___aodiv@divisor+5,c
  3165  0007DA  0E00               	movlw	0
  3166  0007DC  6E16               	movwf	___aodiv@divisor+6,c
  3167  0007DE  0E00               	movlw	0
  3168  0007E0  6E17               	movwf	___aodiv@divisor+7,c
  3169  0007E2  EC4A  F005         	call	___aodiv	;wreg free
  3170  0007E6  C008  F03F         	movff	?___aodiv,dtoa@n
  3171  0007EA  C009  F040         	movff	?___aodiv+1,dtoa@n+1
  3172  0007EE  C00A  F041         	movff	?___aodiv+2,dtoa@n+2
  3173  0007F2  C00B  F042         	movff	?___aodiv+3,dtoa@n+3
  3174  0007F6  C00C  F043         	movff	?___aodiv+4,dtoa@n+4
  3175  0007FA  C00D  F044         	movff	?___aodiv+5,dtoa@n+5
  3176  0007FE  C00E  F045         	movff	?___aodiv+6,dtoa@n+6
  3177  000802  C00F  F046         	movff	?___aodiv+7,dtoa@n+7
  3178  000806                     l3134:
  3179                           
  3180                           ;C:\Program Files (x86)\Microchip\xc8\v2.05\pic\sources\c99\common\doprnt.c: 299:     wh
      +                          ile (!(i < 1) && (n || (0 < p) || ((0 < w) && (flags & (1 << 1))))) {
  3181  000806  BE48               	btfsc	dtoa@i+1,7,c
  3182  000808  D01F               	goto	u2440
  3183  00080A  5048               	movf	dtoa@i+1,w,c
  3184  00080C  E103               	bnz	u2400
  3185  00080E  0447               	decf	dtoa@i,w,c
  3186  000810  A0D8               	btfss	status,0,c
  3187  000812  D01A               	goto	u2440
  3188  000814                     u2400:
  3189  000814  503F               	movf	dtoa@n,w,c
  3190  000816  1040               	iorwf	dtoa@n+1,w,c
  3191  000818  1041               	iorwf	dtoa@n+2,w,c
  3192  00081A  1042               	iorwf	dtoa@n+3,w,c
  3193  00081C  1043               	iorwf	dtoa@n+4,w,c
  3194  00081E  1044               	iorwf	dtoa@n+5,w,c
  3195  000820  1045               	iorwf	dtoa@n+6,w,c
  3196  000822  1046               	iorwf	dtoa@n+7,w,c
  3197  000824  A4D8               	btfss	status,2,c
  3198  000826  D773               	goto	l3124
  3199  000828  BE3A               	btfsc	dtoa@p+1,7,c
  3200  00082A  D005               	goto	u2420
  3201  00082C  503A               	movf	dtoa@p+1,w,c
  3202  00082E  E102               	bnz	u2421
  3203  000830  0439               	decf	dtoa@p,w,c
  3204  000832  B0D8               	btfsc	status,0,c
  3205  000834                     u2421:
  3206  000834  D76C               	goto	l3124
  3207  000836                     u2420:
  3208  000836  BE3C               	btfsc	dtoa@w+1,7,c
  3209  000838  D007               	goto	u2440
  3210  00083A  503C               	movf	dtoa@w+1,w,c
  3211  00083C  E103               	bnz	u2430
  3212  00083E  043B               	decf	dtoa@w,w,c
  3213  000840  A0D8               	btfss	status,0,c
  3214  000842  D002               	goto	u2440
  3215  000844                     u2430:
  3216  000844  B24F               	btfsc	_flags,1,c
  3217  000846  D763               	goto	l3124
  3218  000848                     u2440:
  3219                           
  3220                           ;C:\Program Files (x86)\Microchip\xc8\v2.05\pic\sources\c99\common\doprnt.c: 308:     if
      +                           (s || (flags & (1 << 2))) {
  3221  000848  503D               	movf	dtoa@s,w,c
  3222  00084A  103E               	iorwf	dtoa@s+1,w,c
  3223  00084C  A4D8               	btfss	status,2,c
  3224  00084E  D002               	goto	u2460
  3225  000850  A44F               	btfss	_flags,2,c
  3226  000852  D017               	goto	l3158
  3227  000854                     u2460:
  3228                           
  3229                           ;C:\Program Files (x86)\Microchip\xc8\v2.05\pic\sources\c99\common\doprnt.c: 309:       
      +                            --i;
  3230  000854  0647               	decf	dtoa@i,f,c
  3231  000856  A0D8               	btfss	status,0,c
  3232  000858  0648               	decf	dtoa@i+1,f,c
  3233                           
  3234                           ;C:\Program Files (x86)\Microchip\xc8\v2.05\pic\sources\c99\common\doprnt.c: 310:       
      +                            dbuf[i] = s ? '-' : '+';
  3235  00085A  503D               	movf	dtoa@s,w,c
  3236  00085C  103E               	iorwf	dtoa@s+1,w,c
  3237  00085E  A4D8               	btfss	status,2,c
  3238  000860  D004               	goto	l3154
  3239  000862  0E00               	movlw	0
  3240  000864  6E38               	movwf	_dtoa$1335+1,c
  3241  000866  0E2B               	movlw	43
  3242  000868  D003               	goto	L6
  3243  00086A                     l3154:
  3244  00086A  0E00               	movlw	0
  3245  00086C  6E38               	movwf	_dtoa$1335+1,c
  3246  00086E  0E2D               	movlw	45
  3247  000870                     L6:
  3248  000870  6E37               	movwf	_dtoa$1335,c
  3249  000872  0E50               	movlw	low _dbuf
  3250  000874  2447               	addwf	dtoa@i,w,c
  3251  000876  6ED9               	movwf	fsr2l,c
  3252  000878  0E01               	movlw	high _dbuf
  3253  00087A  2048               	addwfc	dtoa@i+1,w,c
  3254  00087C  6EDA               	movwf	fsr2h,c
  3255  00087E  C037  FFDF         	movff	_dtoa$1335,indf2
  3256  000882                     l3158:
  3257                           
  3258                           ;C:\Program Files (x86)\Microchip\xc8\v2.05\pic\sources\c99\common\doprnt.c: 314:     re
      +                          turn pad(fp, &dbuf[i], w);
  3259  000882  C025  F01A         	movff	dtoa@fp,pad@fp
  3260  000886  C026  F01B         	movff	dtoa@fp+1,pad@fp+1
  3261  00088A  0E50               	movlw	low _dbuf
  3262  00088C  2447               	addwf	dtoa@i,w,c
  3263  00088E  6E1C               	movwf	pad@buf,c
  3264  000890  0E01               	movlw	high _dbuf
  3265  000892  2048               	addwfc	dtoa@i+1,w,c
  3266  000894  6E1D               	movwf	pad@buf+1,c
  3267  000896  C03B  F01E         	movff	dtoa@w,pad@p
  3268  00089A  C03C  F01F         	movff	dtoa@w+1,pad@p+1
  3269  00089E  EC9C  F007         	call	_pad	;wreg free
  3270  0008A2  C01A  F025         	movff	?_pad,?_dtoa
  3271  0008A6  C01B  F026         	movff	?_pad+1,?_dtoa+1
  3272  0008AA  0012               	return		;funcret
  3273  0008AC                     __end_of_dtoa:
  3274                           	opt callstack 0
  3275                           
  3276 ;; *************** function _abs *****************
  3277 ;; Defined at:
  3278 ;;		line 1 in file "C:\Program Files (x86)\Microchip\xc8\v2.05\pic\sources\c99\common\abs.c"
  3279 ;; Parameters:    Size  Location     Type
  3280 ;;  a               2   25[COMRAM] int 
  3281 ;; Auto vars:     Size  Location     Type
  3282 ;;		None
  3283 ;; Return value:  Size  Location     Type
  3284 ;;                  2   25[COMRAM] int 
  3285 ;; Registers used:
  3286 ;;		wreg, status,2, status,0
  3287 ;; Tracked objects:
  3288 ;;		On entry : 0/0
  3289 ;;		On exit  : 0/0
  3290 ;;		Unchanged: 0/0
  3291 ;; Data sizes:     COMRAM   BANK0   BANK1   BANK2   BANK3   BANK4   BANK5
  3292 ;;      Params:         2       0       0       0       0       0       0
  3293 ;;      Locals:         0       0       0       0       0       0       0
  3294 ;;      Temps:          2       0       0       0       0       0       0
  3295 ;;      Totals:         4       0       0       0       0       0       0
  3296 ;;Total ram usage:        4 bytes
  3297 ;; Hardware stack levels used:    1
  3298 ;; Hardware stack levels required when called:    3
  3299 ;; This function calls:
  3300 ;;		Nothing
  3301 ;; This function is called by:
  3302 ;;		_dtoa
  3303 ;; This function uses a non-reentrant model
  3304 ;;
  3305                           
  3306                           	psect	text6
  3307  001398                     __ptext6:
  3308                           	opt callstack 0
  3309  001398                     _abs:
  3310                           	opt callstack 22
  3311                           
  3312                           ;incstack = 0
  3313  001398  BE1B               	btfsc	abs@a+1,7,c
  3314  00139A  D005               	goto	u2180
  3315  00139C  501B               	movf	abs@a+1,w,c
  3316  00139E  E110               	bnz	l1210
  3317  0013A0  041A               	decf	abs@a,w,c
  3318  0013A2  B0D8               	btfsc	status,0,c
  3319  0013A4  D00D               	goto	l1210
  3320  0013A6                     u2180:
  3321  0013A6  C01A  F01C         	movff	abs@a,??_abs
  3322  0013AA  C01B  F01D         	movff	abs@a+1,??_abs+1
  3323  0013AE  1E1C               	comf	??_abs,f,c
  3324  0013B0  1E1D               	comf	??_abs+1,f,c
  3325  0013B2  4A1C               	infsnz	??_abs,f,c
  3326  0013B4  2A1D               	incf	??_abs+1,f,c
  3327  0013B6  C01C  F01A         	movff	??_abs,?_abs
  3328  0013BA  C01D  F01B         	movff	??_abs+1,?_abs+1
  3329  0013BE  0012               	return	
  3330  0013C0                     l1210:
  3331  0013C0  C01A  F01A         	movff	abs@a,?_abs
  3332  0013C4  C01B  F01B         	movff	abs@a+1,?_abs+1
  3333  0013C8  0012               	return		;funcret
  3334  0013CA                     __end_of_abs:
  3335                           	opt callstack 0
  3336                           
  3337 ;; *************** function ___aomod *****************
  3338 ;; Defined at:
  3339 ;;		line 9 in file "C:\Program Files (x86)\Microchip\xc8\v2.05\pic\sources\c99\common\aomod.c"
  3340 ;; Parameters:    Size  Location     Type
  3341 ;;  dividend        8    7[COMRAM] long long 
  3342 ;;  divisor         8   15[COMRAM] long long 
  3343 ;; Auto vars:     Size  Location     Type
  3344 ;;  sign            1   24[COMRAM] unsigned char 
  3345 ;;  counter         1   23[COMRAM] unsigned char 
  3346 ;; Return value:  Size  Location     Type
  3347 ;;                  8    7[COMRAM] long long 
  3348 ;; Registers used:
  3349 ;;		wreg, status,2, status,0
  3350 ;; Tracked objects:
  3351 ;;		On entry : 0/0
  3352 ;;		On exit  : 0/0
  3353 ;;		Unchanged: 0/0
  3354 ;; Data sizes:     COMRAM   BANK0   BANK1   BANK2   BANK3   BANK4   BANK5
  3355 ;;      Params:        16       0       0       0       0       0       0
  3356 ;;      Locals:         2       0       0       0       0       0       0
  3357 ;;      Temps:          0       0       0       0       0       0       0
  3358 ;;      Totals:        18       0       0       0       0       0       0
  3359 ;;Total ram usage:       18 bytes
  3360 ;; Hardware stack levels used:    1
  3361 ;; Hardware stack levels required when called:    3
  3362 ;; This function calls:
  3363 ;;		Nothing
  3364 ;; This function is called by:
  3365 ;;		_dtoa
  3366 ;; This function uses a non-reentrant model
  3367 ;;
  3368                           
  3369                           	psect	text7
  3370  000BDC                     __ptext7:
  3371                           	opt callstack 0
  3372  000BDC                     ___aomod:
  3373                           	opt callstack 22
  3374                           
  3375                           ;incstack = 0
  3376  000BDC  0E00               	movlw	0
  3377  000BDE  6E19               	movwf	___aomod@sign,c
  3378  000BE0  AE0F               	btfss	___aomod@dividend+7,7,c
  3379  000BE2  D012               	goto	l3058
  3380  000BE4  1E0F               	comf	___aomod@dividend+7,f,c
  3381  000BE6  1E0E               	comf	___aomod@dividend+6,f,c
  3382  000BE8  1E0D               	comf	___aomod@dividend+5,f,c
  3383  000BEA  1E0C               	comf	___aomod@dividend+4,f,c
  3384  000BEC  1E0B               	comf	___aomod@dividend+3,f,c
  3385  000BEE  1E0A               	comf	___aomod@dividend+2,f,c
  3386  000BF0  1E09               	comf	___aomod@dividend+1,f,c
  3387  000BF2  6C08               	negf	___aomod@dividend,c
  3388  000BF4  0E00               	movlw	0
  3389  000BF6  2209               	addwfc	___aomod@dividend+1,f,c
  3390  000BF8  220A               	addwfc	___aomod@dividend+2,f,c
  3391  000BFA  220B               	addwfc	___aomod@dividend+3,f,c
  3392  000BFC  220C               	addwfc	___aomod@dividend+4,f,c
  3393  000BFE  220D               	addwfc	___aomod@dividend+5,f,c
  3394  000C00  220E               	addwfc	___aomod@dividend+6,f,c
  3395  000C02  220F               	addwfc	___aomod@dividend+7,f,c
  3396  000C04  0E01               	movlw	1
  3397  000C06  6E19               	movwf	___aomod@sign,c
  3398  000C08                     l3058:
  3399  000C08  AE17               	btfss	___aomod@divisor+7,7,c
  3400  000C0A  D010               	goto	l3062
  3401  000C0C  1E17               	comf	___aomod@divisor+7,f,c
  3402  000C0E  1E16               	comf	___aomod@divisor+6,f,c
  3403  000C10  1E15               	comf	___aomod@divisor+5,f,c
  3404  000C12  1E14               	comf	___aomod@divisor+4,f,c
  3405  000C14  1E13               	comf	___aomod@divisor+3,f,c
  3406  000C16  1E12               	comf	___aomod@divisor+2,f,c
  3407  000C18  1E11               	comf	___aomod@divisor+1,f,c
  3408  000C1A  6C10               	negf	___aomod@divisor,c
  3409  000C1C  0E00               	movlw	0
  3410  000C1E  2211               	addwfc	___aomod@divisor+1,f,c
  3411  000C20  2212               	addwfc	___aomod@divisor+2,f,c
  3412  000C22  2213               	addwfc	___aomod@divisor+3,f,c
  3413  000C24  2214               	addwfc	___aomod@divisor+4,f,c
  3414  000C26  2215               	addwfc	___aomod@divisor+5,f,c
  3415  000C28  2216               	addwfc	___aomod@divisor+6,f,c
  3416  000C2A  2217               	addwfc	___aomod@divisor+7,f,c
  3417  000C2C                     l3062:
  3418  000C2C  5010               	movf	___aomod@divisor,w,c
  3419  000C2E  1011               	iorwf	___aomod@divisor+1,w,c
  3420  000C30  1012               	iorwf	___aomod@divisor+2,w,c
  3421  000C32  1013               	iorwf	___aomod@divisor+3,w,c
  3422  000C34  1014               	iorwf	___aomod@divisor+4,w,c
  3423  000C36  1015               	iorwf	___aomod@divisor+5,w,c
  3424  000C38  1016               	iorwf	___aomod@divisor+6,w,c
  3425  000C3A  1017               	iorwf	___aomod@divisor+7,w,c
  3426  000C3C  B4D8               	btfsc	status,2,c
  3427  000C3E  D03C               	goto	l3078
  3428  000C40  0E01               	movlw	1
  3429  000C42  6E18               	movwf	___aomod@counter,c
  3430  000C44  D00A               	goto	l3068
  3431  000C46                     l3066:
  3432  000C46  90D8               	bcf	status,0,c
  3433  000C48  3610               	rlcf	___aomod@divisor,f,c
  3434  000C4A  3611               	rlcf	___aomod@divisor+1,f,c
  3435  000C4C  3612               	rlcf	___aomod@divisor+2,f,c
  3436  000C4E  3613               	rlcf	___aomod@divisor+3,f,c
  3437  000C50  3614               	rlcf	___aomod@divisor+4,f,c
  3438  000C52  3615               	rlcf	___aomod@divisor+5,f,c
  3439  000C54  3616               	rlcf	___aomod@divisor+6,f,c
  3440  000C56  3617               	rlcf	___aomod@divisor+7,f,c
  3441  000C58  2A18               	incf	___aomod@counter,f,c
  3442  000C5A                     l3068:
  3443  000C5A  AE17               	btfss	___aomod@divisor+7,7,c
  3444  000C5C  D7F4               	goto	l3066
  3445  000C5E                     u2290:
  3446  000C5E  5010               	movf	___aomod@divisor,w,c
  3447  000C60  5C08               	subwf	___aomod@dividend,w,c
  3448  000C62  5011               	movf	___aomod@divisor+1,w,c
  3449  000C64  5809               	subwfb	___aomod@dividend+1,w,c
  3450  000C66  5012               	movf	___aomod@divisor+2,w,c
  3451  000C68  580A               	subwfb	___aomod@dividend+2,w,c
  3452  000C6A  5013               	movf	___aomod@divisor+3,w,c
  3453  000C6C  580B               	subwfb	___aomod@dividend+3,w,c
  3454  000C6E  5014               	movf	___aomod@divisor+4,w,c
  3455  000C70  580C               	subwfb	___aomod@dividend+4,w,c
  3456  000C72  5015               	movf	___aomod@divisor+5,w,c
  3457  000C74  580D               	subwfb	___aomod@dividend+5,w,c
  3458  000C76  5016               	movf	___aomod@divisor+6,w,c
  3459  000C78  580E               	subwfb	___aomod@dividend+6,w,c
  3460  000C7A  5017               	movf	___aomod@divisor+7,w,c
  3461  000C7C  580F               	subwfb	___aomod@dividend+7,w,c
  3462  000C7E  A0D8               	btfss	status,0,c
  3463  000C80  D010               	goto	l3074
  3464  000C82  5010               	movf	___aomod@divisor,w,c
  3465  000C84  5E08               	subwf	___aomod@dividend,f,c
  3466  000C86  5011               	movf	___aomod@divisor+1,w,c
  3467  000C88  5A09               	subwfb	___aomod@dividend+1,f,c
  3468  000C8A  5012               	movf	___aomod@divisor+2,w,c
  3469  000C8C  5A0A               	subwfb	___aomod@dividend+2,f,c
  3470  000C8E  5013               	movf	___aomod@divisor+3,w,c
  3471  000C90  5A0B               	subwfb	___aomod@dividend+3,f,c
  3472  000C92  5014               	movf	___aomod@divisor+4,w,c
  3473  000C94  5A0C               	subwfb	___aomod@dividend+4,f,c
  3474  000C96  5015               	movf	___aomod@divisor+5,w,c
  3475  000C98  5A0D               	subwfb	___aomod@dividend+5,f,c
  3476  000C9A  5016               	movf	___aomod@divisor+6,w,c
  3477  000C9C  5A0E               	subwfb	___aomod@dividend+6,f,c
  3478  000C9E  5017               	movf	___aomod@divisor+7,w,c
  3479  000CA0  5A0F               	subwfb	___aomod@dividend+7,f,c
  3480  000CA2                     l3074:
  3481  000CA2  90D8               	bcf	status,0,c
  3482  000CA4  3217               	rrcf	___aomod@divisor+7,f,c
  3483  000CA6  3216               	rrcf	___aomod@divisor+6,f,c
  3484  000CA8  3215               	rrcf	___aomod@divisor+5,f,c
  3485  000CAA  3214               	rrcf	___aomod@divisor+4,f,c
  3486  000CAC  3213               	rrcf	___aomod@divisor+3,f,c
  3487  000CAE  3212               	rrcf	___aomod@divisor+2,f,c
  3488  000CB0  3211               	rrcf	___aomod@divisor+1,f,c
  3489  000CB2  3210               	rrcf	___aomod@divisor,f,c
  3490  000CB4  2E18               	decfsz	___aomod@counter,f,c
  3491  000CB6  D7D3               	goto	u2290
  3492  000CB8                     l3078:
  3493  000CB8  5019               	movf	___aomod@sign,w,c
  3494  000CBA  B4D8               	btfsc	status,2,c
  3495  000CBC  D010               	goto	l3082
  3496  000CBE  1E0F               	comf	___aomod@dividend+7,f,c
  3497  000CC0  1E0E               	comf	___aomod@dividend+6,f,c
  3498  000CC2  1E0D               	comf	___aomod@dividend+5,f,c
  3499  000CC4  1E0C               	comf	___aomod@dividend+4,f,c
  3500  000CC6  1E0B               	comf	___aomod@dividend+3,f,c
  3501  000CC8  1E0A               	comf	___aomod@dividend+2,f,c
  3502  000CCA  1E09               	comf	___aomod@dividend+1,f,c
  3503  000CCC  6C08               	negf	___aomod@dividend,c
  3504  000CCE  0E00               	movlw	0
  3505  000CD0  2209               	addwfc	___aomod@dividend+1,f,c
  3506  000CD2  220A               	addwfc	___aomod@dividend+2,f,c
  3507  000CD4  220B               	addwfc	___aomod@dividend+3,f,c
  3508  000CD6  220C               	addwfc	___aomod@dividend+4,f,c
  3509  000CD8  220D               	addwfc	___aomod@dividend+5,f,c
  3510  000CDA  220E               	addwfc	___aomod@dividend+6,f,c
  3511  000CDC  220F               	addwfc	___aomod@dividend+7,f,c
  3512  000CDE                     l3082:
  3513  000CDE  C008  F008         	movff	___aomod@dividend,?___aomod
  3514  000CE2  C009  F009         	movff	___aomod@dividend+1,?___aomod+1
  3515  000CE6  C00A  F00A         	movff	___aomod@dividend+2,?___aomod+2
  3516  000CEA  C00B  F00B         	movff	___aomod@dividend+3,?___aomod+3
  3517  000CEE  C00C  F00C         	movff	___aomod@dividend+4,?___aomod+4
  3518  000CF2  C00D  F00D         	movff	___aomod@dividend+5,?___aomod+5
  3519  000CF6  C00E  F00E         	movff	___aomod@dividend+6,?___aomod+6
  3520  000CFA  C00F  F00F         	movff	___aomod@dividend+7,?___aomod+7
  3521  000CFE  0012               	return		;funcret
  3522  000D00                     __end_of___aomod:
  3523                           	opt callstack 0
  3524                           
  3525 ;; *************** function ___aodiv *****************
  3526 ;; Defined at:
  3527 ;;		line 9 in file "C:\Program Files (x86)\Microchip\xc8\v2.05\pic\sources\c99\common\aodiv.c"
  3528 ;; Parameters:    Size  Location     Type
  3529 ;;  dividend        8    7[COMRAM] long long 
  3530 ;;  divisor         8   15[COMRAM] long long 
  3531 ;; Auto vars:     Size  Location     Type
  3532 ;;  quotient        8   25[COMRAM] long long 
  3533 ;;  sign            1   24[COMRAM] unsigned char 
  3534 ;;  counter         1   23[COMRAM] unsigned char 
  3535 ;; Return value:  Size  Location     Type
  3536 ;;                  8    7[COMRAM] long long 
  3537 ;; Registers used:
  3538 ;;		wreg, fsr2l, fsr2h, status,2, status,0
  3539 ;; Tracked objects:
  3540 ;;		On entry : 0/0
  3541 ;;		On exit  : 0/0
  3542 ;;		Unchanged: 0/0
  3543 ;; Data sizes:     COMRAM   BANK0   BANK1   BANK2   BANK3   BANK4   BANK5
  3544 ;;      Params:        16       0       0       0       0       0       0
  3545 ;;      Locals:        10       0       0       0       0       0       0
  3546 ;;      Temps:          0       0       0       0       0       0       0
  3547 ;;      Totals:        26       0       0       0       0       0       0
  3548 ;;Total ram usage:       26 bytes
  3549 ;; Hardware stack levels used:    1
  3550 ;; Hardware stack levels required when called:    3
  3551 ;; This function calls:
  3552 ;;		Nothing
  3553 ;; This function is called by:
  3554 ;;		_dtoa
  3555 ;; This function uses a non-reentrant model
  3556 ;;
  3557                           
  3558                           	psect	text8
  3559  000A94                     __ptext8:
  3560                           	opt callstack 0
  3561  000A94                     ___aodiv:
  3562                           	opt callstack 22
  3563                           
  3564                           ;incstack = 0
  3565  000A94  0E00               	movlw	0
  3566  000A96  6E19               	movwf	___aodiv@sign,c
  3567  000A98  AE17               	btfss	___aodiv@divisor+7,7,c
  3568  000A9A  D012               	goto	l3014
  3569  000A9C  1E17               	comf	___aodiv@divisor+7,f,c
  3570  000A9E  1E16               	comf	___aodiv@divisor+6,f,c
  3571  000AA0  1E15               	comf	___aodiv@divisor+5,f,c
  3572  000AA2  1E14               	comf	___aodiv@divisor+4,f,c
  3573  000AA4  1E13               	comf	___aodiv@divisor+3,f,c
  3574  000AA6  1E12               	comf	___aodiv@divisor+2,f,c
  3575  000AA8  1E11               	comf	___aodiv@divisor+1,f,c
  3576  000AAA  6C10               	negf	___aodiv@divisor,c
  3577  000AAC  0E00               	movlw	0
  3578  000AAE  2211               	addwfc	___aodiv@divisor+1,f,c
  3579  000AB0  2212               	addwfc	___aodiv@divisor+2,f,c
  3580  000AB2  2213               	addwfc	___aodiv@divisor+3,f,c
  3581  000AB4  2214               	addwfc	___aodiv@divisor+4,f,c
  3582  000AB6  2215               	addwfc	___aodiv@divisor+5,f,c
  3583  000AB8  2216               	addwfc	___aodiv@divisor+6,f,c
  3584  000ABA  2217               	addwfc	___aodiv@divisor+7,f,c
  3585  000ABC  0E01               	movlw	1
  3586  000ABE  6E19               	movwf	___aodiv@sign,c
  3587  000AC0                     l3014:
  3588  000AC0  AE0F               	btfss	___aodiv@dividend+7,7,c
  3589  000AC2  D012               	goto	l3020
  3590  000AC4  1E0F               	comf	___aodiv@dividend+7,f,c
  3591  000AC6  1E0E               	comf	___aodiv@dividend+6,f,c
  3592  000AC8  1E0D               	comf	___aodiv@dividend+5,f,c
  3593  000ACA  1E0C               	comf	___aodiv@dividend+4,f,c
  3594  000ACC  1E0B               	comf	___aodiv@dividend+3,f,c
  3595  000ACE  1E0A               	comf	___aodiv@dividend+2,f,c
  3596  000AD0  1E09               	comf	___aodiv@dividend+1,f,c
  3597  000AD2  6C08               	negf	___aodiv@dividend,c
  3598  000AD4  0E00               	movlw	0
  3599  000AD6  2209               	addwfc	___aodiv@dividend+1,f,c
  3600  000AD8  220A               	addwfc	___aodiv@dividend+2,f,c
  3601  000ADA  220B               	addwfc	___aodiv@dividend+3,f,c
  3602  000ADC  220C               	addwfc	___aodiv@dividend+4,f,c
  3603  000ADE  220D               	addwfc	___aodiv@dividend+5,f,c
  3604  000AE0  220E               	addwfc	___aodiv@dividend+6,f,c
  3605  000AE2  220F               	addwfc	___aodiv@dividend+7,f,c
  3606  000AE4  0E01               	movlw	1
  3607  000AE6  1A19               	xorwf	___aodiv@sign,f,c
  3608  000AE8                     l3020:
  3609  000AE8  EE20  F01A         	lfsr	2,___aodiv@quotient
  3610  000AEC  0E07               	movlw	7
  3611  000AEE                     u2211:
  3612  000AEE  6ADE               	clrf	postinc2,c
  3613  000AF0  06E8               	decf	wreg,f,c
  3614  000AF2  E2FD               	bc	u2211
  3615  000AF4  5010               	movf	___aodiv@divisor,w,c
  3616  000AF6  1011               	iorwf	___aodiv@divisor+1,w,c
  3617  000AF8  1012               	iorwf	___aodiv@divisor+2,w,c
  3618  000AFA  1013               	iorwf	___aodiv@divisor+3,w,c
  3619  000AFC  1014               	iorwf	___aodiv@divisor+4,w,c
  3620  000AFE  1015               	iorwf	___aodiv@divisor+5,w,c
  3621  000B00  1016               	iorwf	___aodiv@divisor+6,w,c
  3622  000B02  1017               	iorwf	___aodiv@divisor+7,w,c
  3623  000B04  B4D8               	btfsc	status,2,c
  3624  000B06  D046               	goto	l3042
  3625  000B08  0E01               	movlw	1
  3626  000B0A  6E18               	movwf	___aodiv@counter,c
  3627  000B0C  D00A               	goto	l3028
  3628  000B0E                     l3026:
  3629  000B0E  90D8               	bcf	status,0,c
  3630  000B10  3610               	rlcf	___aodiv@divisor,f,c
  3631  000B12  3611               	rlcf	___aodiv@divisor+1,f,c
  3632  000B14  3612               	rlcf	___aodiv@divisor+2,f,c
  3633  000B16  3613               	rlcf	___aodiv@divisor+3,f,c
  3634  000B18  3614               	rlcf	___aodiv@divisor+4,f,c
  3635  000B1A  3615               	rlcf	___aodiv@divisor+5,f,c
  3636  000B1C  3616               	rlcf	___aodiv@divisor+6,f,c
  3637  000B1E  3617               	rlcf	___aodiv@divisor+7,f,c
  3638  000B20  2A18               	incf	___aodiv@counter,f,c
  3639  000B22                     l3028:
  3640  000B22  AE17               	btfss	___aodiv@divisor+7,7,c
  3641  000B24  D7F4               	goto	l3026
  3642  000B26                     u2230:
  3643  000B26  90D8               	bcf	status,0,c
  3644  000B28  361A               	rlcf	___aodiv@quotient,f,c
  3645  000B2A  361B               	rlcf	___aodiv@quotient+1,f,c
  3646  000B2C  361C               	rlcf	___aodiv@quotient+2,f,c
  3647  000B2E  361D               	rlcf	___aodiv@quotient+3,f,c
  3648  000B30  361E               	rlcf	___aodiv@quotient+4,f,c
  3649  000B32  361F               	rlcf	___aodiv@quotient+5,f,c
  3650  000B34  3620               	rlcf	___aodiv@quotient+6,f,c
  3651  000B36  3621               	rlcf	___aodiv@quotient+7,f,c
  3652  000B38  5010               	movf	___aodiv@divisor,w,c
  3653  000B3A  5C08               	subwf	___aodiv@dividend,w,c
  3654  000B3C  5011               	movf	___aodiv@divisor+1,w,c
  3655  000B3E  5809               	subwfb	___aodiv@dividend+1,w,c
  3656  000B40  5012               	movf	___aodiv@divisor+2,w,c
  3657  000B42  580A               	subwfb	___aodiv@dividend+2,w,c
  3658  000B44  5013               	movf	___aodiv@divisor+3,w,c
  3659  000B46  580B               	subwfb	___aodiv@dividend+3,w,c
  3660  000B48  5014               	movf	___aodiv@divisor+4,w,c
  3661  000B4A  580C               	subwfb	___aodiv@dividend+4,w,c
  3662  000B4C  5015               	movf	___aodiv@divisor+5,w,c
  3663  000B4E  580D               	subwfb	___aodiv@dividend+5,w,c
  3664  000B50  5016               	movf	___aodiv@divisor+6,w,c
  3665  000B52  580E               	subwfb	___aodiv@dividend+6,w,c
  3666  000B54  5017               	movf	___aodiv@divisor+7,w,c
  3667  000B56  580F               	subwfb	___aodiv@dividend+7,w,c
  3668  000B58  A0D8               	btfss	status,0,c
  3669  000B5A  D011               	goto	l3038
  3670  000B5C  5010               	movf	___aodiv@divisor,w,c
  3671  000B5E  5E08               	subwf	___aodiv@dividend,f,c
  3672  000B60  5011               	movf	___aodiv@divisor+1,w,c
  3673  000B62  5A09               	subwfb	___aodiv@dividend+1,f,c
  3674  000B64  5012               	movf	___aodiv@divisor+2,w,c
  3675  000B66  5A0A               	subwfb	___aodiv@dividend+2,f,c
  3676  000B68  5013               	movf	___aodiv@divisor+3,w,c
  3677  000B6A  5A0B               	subwfb	___aodiv@dividend+3,f,c
  3678  000B6C  5014               	movf	___aodiv@divisor+4,w,c
  3679  000B6E  5A0C               	subwfb	___aodiv@dividend+4,f,c
  3680  000B70  5015               	movf	___aodiv@divisor+5,w,c
  3681  000B72  5A0D               	subwfb	___aodiv@dividend+5,f,c
  3682  000B74  5016               	movf	___aodiv@divisor+6,w,c
  3683  000B76  5A0E               	subwfb	___aodiv@dividend+6,f,c
  3684  000B78  5017               	movf	___aodiv@divisor+7,w,c
  3685  000B7A  5A0F               	subwfb	___aodiv@dividend+7,f,c
  3686  000B7C  801A               	bsf	___aodiv@quotient,0,c
  3687  000B7E                     l3038:
  3688  000B7E  90D8               	bcf	status,0,c
  3689  000B80  3217               	rrcf	___aodiv@divisor+7,f,c
  3690  000B82  3216               	rrcf	___aodiv@divisor+6,f,c
  3691  000B84  3215               	rrcf	___aodiv@divisor+5,f,c
  3692  000B86  3214               	rrcf	___aodiv@divisor+4,f,c
  3693  000B88  3213               	rrcf	___aodiv@divisor+3,f,c
  3694  000B8A  3212               	rrcf	___aodiv@divisor+2,f,c
  3695  000B8C  3211               	rrcf	___aodiv@divisor+1,f,c
  3696  000B8E  3210               	rrcf	___aodiv@divisor,f,c
  3697  000B90  2E18               	decfsz	___aodiv@counter,f,c
  3698  000B92  D7C9               	goto	u2230
  3699  000B94                     l3042:
  3700  000B94  5019               	movf	___aodiv@sign,w,c
  3701  000B96  B4D8               	btfsc	status,2,c
  3702  000B98  D010               	goto	l3046
  3703  000B9A  1E21               	comf	___aodiv@quotient+7,f,c
  3704  000B9C  1E20               	comf	___aodiv@quotient+6,f,c
  3705  000B9E  1E1F               	comf	___aodiv@quotient+5,f,c
  3706  000BA0  1E1E               	comf	___aodiv@quotient+4,f,c
  3707  000BA2  1E1D               	comf	___aodiv@quotient+3,f,c
  3708  000BA4  1E1C               	comf	___aodiv@quotient+2,f,c
  3709  000BA6  1E1B               	comf	___aodiv@quotient+1,f,c
  3710  000BA8  6C1A               	negf	___aodiv@quotient,c
  3711  000BAA  0E00               	movlw	0
  3712  000BAC  221B               	addwfc	___aodiv@quotient+1,f,c
  3713  000BAE  221C               	addwfc	___aodiv@quotient+2,f,c
  3714  000BB0  221D               	addwfc	___aodiv@quotient+3,f,c
  3715  000BB2  221E               	addwfc	___aodiv@quotient+4,f,c
  3716  000BB4  221F               	addwfc	___aodiv@quotient+5,f,c
  3717  000BB6  2220               	addwfc	___aodiv@quotient+6,f,c
  3718  000BB8  2221               	addwfc	___aodiv@quotient+7,f,c
  3719  000BBA                     l3046:
  3720  000BBA  C01A  F008         	movff	___aodiv@quotient,?___aodiv
  3721  000BBE  C01B  F009         	movff	___aodiv@quotient+1,?___aodiv+1
  3722  000BC2  C01C  F00A         	movff	___aodiv@quotient+2,?___aodiv+2
  3723  000BC6  C01D  F00B         	movff	___aodiv@quotient+3,?___aodiv+3
  3724  000BCA  C01E  F00C         	movff	___aodiv@quotient+4,?___aodiv+4
  3725  000BCE  C01F  F00D         	movff	___aodiv@quotient+5,?___aodiv+5
  3726  000BD2  C020  F00E         	movff	___aodiv@quotient+6,?___aodiv+6
  3727  000BD6  C021  F00F         	movff	___aodiv@quotient+7,?___aodiv+7
  3728  000BDA  0012               	return		;funcret
  3729  000BDC                     __end_of___aodiv:
  3730                           	opt callstack 0
  3731                           
  3732 ;; *************** function _ctoa *****************
  3733 ;; Defined at:
  3734 ;;		line 259 in file "C:\Program Files (x86)\Microchip\xc8\v2.05\pic\sources\c99\common\doprnt.c"
  3735 ;; Parameters:    Size  Location     Type
  3736 ;;  fp              2   36[COMRAM] PTR struct _IO_FILE
  3737 ;;		 -> sprintf@f(6), 
  3738 ;;  c               1   38[COMRAM] unsigned char 
  3739 ;; Auto vars:     Size  Location     Type
  3740 ;;  w               2   39[COMRAM] int 
  3741 ;;  l               2    0        int 
  3742 ;; Return value:  Size  Location     Type
  3743 ;;                  2   36[COMRAM] int 
  3744 ;; Registers used:
  3745 ;;		wreg, fsr1l, fsr1h, fsr2l, fsr2h, status,2, status,0, cstack
  3746 ;; Tracked objects:
  3747 ;;		On entry : 0/0
  3748 ;;		On exit  : 0/0
  3749 ;;		Unchanged: 0/0
  3750 ;; Data sizes:     COMRAM   BANK0   BANK1   BANK2   BANK3   BANK4   BANK5
  3751 ;;      Params:         3       0       0       0       0       0       0
  3752 ;;      Locals:         2       0       0       0       0       0       0
  3753 ;;      Temps:          0       0       0       0       0       0       0
  3754 ;;      Totals:         5       0       0       0       0       0       0
  3755 ;;Total ram usage:        5 bytes
  3756 ;; Hardware stack levels used:    1
  3757 ;; Hardware stack levels required when called:    8
  3758 ;; This function calls:
  3759 ;;		_pad
  3760 ;; This function is called by:
  3761 ;;		_vfpfcnvrt
  3762 ;; This function uses a non-reentrant model
  3763 ;;
  3764                           
  3765                           	psect	text9
  3766  0010C8                     __ptext9:
  3767                           	opt callstack 0
  3768  0010C8                     _ctoa:
  3769                           	opt callstack 18
  3770                           
  3771                           ;C:\Program Files (x86)\Microchip\xc8\v2.05\pic\sources\c99\common\doprnt.c: 259: static
      +                           int ctoa(FILE *fp, char c);C:\Program Files (x86)\Microchip\xc8\v2.05\pic\sources\c99\c
      +                          ommon\doprnt.c: 260: {;C:\Program Files (x86)\Microchip\xc8\v2.05\pic\sources\c99\common
      +                          \doprnt.c: 261:     int l, w;;C:\Program Files (x86)\Microchip\xc8\v2.05\pic\sources\c99
      +                          \common\doprnt.c: 264:     w = width ? width - 1 : width;
  3772                           
  3773                           ;incstack = 0
  3774  0010C8  0100               	movlb	0	; () banked
  3775  0010CA  5169               	movf	_width& (0+255),w,b
  3776  0010CC  116A               	iorwf	(_width+1)& (0+255),w,b
  3777  0010CE  A4D8               	btfss	status,2,c
  3778  0010D0  D005               	goto	l3090
  3779                           
  3780                           ; BSR set to: 0
  3781  0010D2  C069  F028         	movff	_width,ctoa@w
  3782  0010D6  C06A  F029         	movff	_width+1,ctoa@w+1
  3783  0010DA  D006               	goto	l3092
  3784  0010DC                     l3090:
  3785                           
  3786                           ; BSR set to: 0
  3787  0010DC  0EFF               	movlw	255
  3788  0010DE  2569               	addwf	_width& (0+255),w,b
  3789  0010E0  6E28               	movwf	ctoa@w,c
  3790  0010E2  0EFF               	movlw	255
  3791  0010E4  216A               	addwfc	(_width+1)& (0+255),w,b
  3792  0010E6  6E29               	movwf	ctoa@w+1,c
  3793  0010E8                     l3092:
  3794                           
  3795                           ; BSR set to: 0
  3796                           ;C:\Program Files (x86)\Microchip\xc8\v2.05\pic\sources\c99\common\doprnt.c: 267:     db
      +                          uf[0] = c;
  3797  0010E8  C027  F150         	movff	ctoa@c,_dbuf
  3798                           
  3799                           ; BSR set to: 0
  3800                           ;C:\Program Files (x86)\Microchip\xc8\v2.05\pic\sources\c99\common\doprnt.c: 268:     db
      +                          uf[1] = '\0';
  3801  0010EC  0E00               	movlw	0
  3802  0010EE  0101               	movlb	1	; () banked
  3803  0010F0  6F51               	movwf	(_dbuf+1)& (0+255),b
  3804                           
  3805                           ; BSR set to: 1
  3806                           ;C:\Program Files (x86)\Microchip\xc8\v2.05\pic\sources\c99\common\doprnt.c: 269:     re
      +                          turn pad(fp, &dbuf[0], w);
  3807  0010F2  C025  F01A         	movff	ctoa@fp,pad@fp
  3808  0010F6  C026  F01B         	movff	ctoa@fp+1,pad@fp+1
  3809  0010FA  0E50               	movlw	low _dbuf
  3810  0010FC  6E1C               	movwf	pad@buf,c
  3811  0010FE  0E01               	movlw	high _dbuf
  3812  001100  6E1D               	movwf	pad@buf+1,c
  3813  001102  C028  F01E         	movff	ctoa@w,pad@p
  3814  001106  C029  F01F         	movff	ctoa@w+1,pad@p+1
  3815  00110A  EC9C  F007         	call	_pad	;wreg free
  3816  00110E  C01A  F025         	movff	?_pad,?_ctoa
  3817  001112  C01B  F026         	movff	?_pad+1,?_ctoa+1
  3818  001116  0012               	return		;funcret
  3819  001118                     __end_of_ctoa:
  3820                           	opt callstack 0
  3821                           
  3822 ;; *************** function _pad *****************
  3823 ;; Defined at:
  3824 ;;		line 72 in file "C:\Program Files (x86)\Microchip\xc8\v2.05\pic\sources\c99\common\doprnt.c"
  3825 ;; Parameters:    Size  Location     Type
  3826 ;;  fp              2   25[COMRAM] PTR struct _IO_FILE
  3827 ;;		 -> sprintf@f(6), 
  3828 ;;  buf             2   27[COMRAM] PTR unsigned char 
  3829 ;;		 -> dbuf(32), 
  3830 ;;  p               2   29[COMRAM] int 
  3831 ;; Auto vars:     Size  Location     Type
  3832 ;;  w               2   34[COMRAM] int 
  3833 ;;  i               2   32[COMRAM] int 
  3834 ;; Return value:  Size  Location     Type
  3835 ;;                  2   25[COMRAM] int 
  3836 ;; Registers used:
  3837 ;;		wreg, fsr1l, fsr1h, fsr2l, fsr2h, status,2, status,0, cstack
  3838 ;; Tracked objects:
  3839 ;;		On entry : 0/0
  3840 ;;		On exit  : 0/0
  3841 ;;		Unchanged: 0/0
  3842 ;; Data sizes:     COMRAM   BANK0   BANK1   BANK2   BANK3   BANK4   BANK5
  3843 ;;      Params:         6       0       0       0       0       0       0
  3844 ;;      Locals:         4       0       0       0       0       0       0
  3845 ;;      Temps:          1       0       0       0       0       0       0
  3846 ;;      Totals:        11       0       0       0       0       0       0
  3847 ;;Total ram usage:       11 bytes
  3848 ;; Hardware stack levels used:    1
  3849 ;; Hardware stack levels required when called:    7
  3850 ;; This function calls:
  3851 ;;		_fputc
  3852 ;;		_fputs
  3853 ;;		_strlen
  3854 ;; This function is called by:
  3855 ;;		_ctoa
  3856 ;;		_dtoa
  3857 ;; This function uses a non-reentrant model
  3858 ;;
  3859                           
  3860                           	psect	text10
  3861  000F38                     __ptext10:
  3862                           	opt callstack 0
  3863  000F38                     _pad:
  3864                           	opt callstack 18
  3865                           
  3866                           ;C:\Program Files (x86)\Microchip\xc8\v2.05\pic\sources\c99\common\doprnt.c: 72: static 
      +                          int pad(FILE *fp, char *buf, int p);C:\Program Files (x86)\Microchip\xc8\v2.05\pic\sourc
      +                          es\c99\common\doprnt.c: 73: {;C:\Program Files (x86)\Microchip\xc8\v2.05\pic\sources\c99
      +                          \common\doprnt.c: 74:     int i, w;;C:\Program Files (x86)\Microchip\xc8\v2.05\pic\sourc
      +                          es\c99\common\doprnt.c: 77:     if (flags & (1 << 0)) {
  3867                           
  3868                           ;incstack = 0
  3869  000F38  A04F               	btfss	_flags,0,c
  3870  000F3A  D00A               	goto	l2984
  3871                           
  3872                           ;C:\Program Files (x86)\Microchip\xc8\v2.05\pic\sources\c99\common\doprnt.c: 78:        
      +                           fputs((const char *)buf, fp);
  3873  000F3C  C01C  F013         	movff	pad@buf,fputs@s
  3874  000F40  C01D  F014         	movff	pad@buf+1,fputs@s+1
  3875  000F44  C01A  F015         	movff	pad@fp,fputs@fp
  3876  000F48  C01B  F016         	movff	pad@fp+1,fputs@fp+1
  3877  000F4C  EC62  F009         	call	_fputs	;wreg free
  3878  000F50                     l2984:
  3879                           
  3880                           ;C:\Program Files (x86)\Microchip\xc8\v2.05\pic\sources\c99\common\doprnt.c: 82:     w =
      +                           (p < 0) ? 0 : p;
  3881  000F50  BE1F               	btfsc	pad@p+1,7,c
  3882  000F52  D005               	goto	l2988
  3883  000F54  C01E  F023         	movff	pad@p,pad@w
  3884  000F58  C01F  F024         	movff	pad@p+1,pad@w+1
  3885  000F5C  D004               	goto	l479
  3886  000F5E                     l2988:
  3887  000F5E  0E00               	movlw	0
  3888  000F60  6E24               	movwf	pad@w+1,c
  3889  000F62  0E00               	movlw	0
  3890  000F64  6E23               	movwf	pad@w,c
  3891  000F66                     l479:
  3892                           
  3893                           ;C:\Program Files (x86)\Microchip\xc8\v2.05\pic\sources\c99\common\doprnt.c: 83:     i =
      +                           0;
  3894  000F66  0E00               	movlw	0
  3895  000F68  6E22               	movwf	pad@i+1,c
  3896  000F6A  0E00               	movlw	0
  3897  000F6C  6E21               	movwf	pad@i,c
  3898                           
  3899                           ;C:\Program Files (x86)\Microchip\xc8\v2.05\pic\sources\c99\common\doprnt.c: 84:     whi
      +                          le (i < w) {
  3900  000F6E  D00C               	goto	l2994
  3901  000F70                     l2990:
  3902                           
  3903                           ;C:\Program Files (x86)\Microchip\xc8\v2.05\pic\sources\c99\common\doprnt.c: 85:        
      +                           fputc(' ', fp);
  3904  000F70  0E00               	movlw	0
  3905  000F72  6E0B               	movwf	fputc@c+1,c
  3906  000F74  0E20               	movlw	32
  3907  000F76  6E0A               	movwf	fputc@c,c
  3908  000F78  C01A  F00C         	movff	pad@fp,fputc@fp
  3909  000F7C  C01B  F00D         	movff	pad@fp+1,fputc@fp+1
  3910  000F80  ECFD  F006         	call	_fputc	;wreg free
  3911                           
  3912                           ;C:\Program Files (x86)\Microchip\xc8\v2.05\pic\sources\c99\common\doprnt.c: 86:        
      +                           ++i;
  3913  000F84  4A21               	infsnz	pad@i,f,c
  3914  000F86  2A22               	incf	pad@i+1,f,c
  3915  000F88                     l2994:
  3916                           
  3917                           ;C:\Program Files (x86)\Microchip\xc8\v2.05\pic\sources\c99\common\doprnt.c: 84:     whi
      +                          le (i < w) {
  3918  000F88  5023               	movf	pad@w,w,c
  3919  000F8A  5C21               	subwf	pad@i,w,c
  3920  000F8C  5022               	movf	pad@i+1,w,c
  3921  000F8E  0A80               	xorlw	128
  3922  000F90  6E20               	movwf	??_pad& (0+255),c
  3923  000F92  5024               	movf	pad@w+1,w,c
  3924  000F94  0A80               	xorlw	128
  3925  000F96  5820               	subwfb	??_pad& (0+255),w,c
  3926  000F98  A0D8               	btfss	status,0,c
  3927  000F9A  D7EA               	goto	l2990
  3928                           
  3929                           ;C:\Program Files (x86)\Microchip\xc8\v2.05\pic\sources\c99\common\doprnt.c: 90:     if 
      +                          (!(flags & (1 << 0))) {
  3930  000F9C  B04F               	btfsc	_flags,0,c
  3931  000F9E  D00A               	goto	l2998
  3932                           
  3933                           ;C:\Program Files (x86)\Microchip\xc8\v2.05\pic\sources\c99\common\doprnt.c: 91:        
      +                           fputs((const char *)buf, fp);
  3934  000FA0  C01C  F013         	movff	pad@buf,fputs@s
  3935  000FA4  C01D  F014         	movff	pad@buf+1,fputs@s+1
  3936  000FA8  C01A  F015         	movff	pad@fp,fputs@fp
  3937  000FAC  C01B  F016         	movff	pad@fp+1,fputs@fp+1
  3938  000FB0  EC62  F009         	call	_fputs	;wreg free
  3939  000FB4                     l2998:
  3940                           
  3941                           ;C:\Program Files (x86)\Microchip\xc8\v2.05\pic\sources\c99\common\doprnt.c: 94:     ret
      +                          urn strlen(buf) + w;
  3942  000FB4  C01C  F008         	movff	pad@buf,strlen@s
  3943  000FB8  C01D  F009         	movff	pad@buf+1,strlen@s+1
  3944  000FBC  ECFB  F009         	call	_strlen	;wreg free
  3945  000FC0  5023               	movf	pad@w,w,c
  3946  000FC2  2408               	addwf	?_strlen,w,c
  3947  000FC4  6E1A               	movwf	?_pad,c
  3948  000FC6  5024               	movf	pad@w+1,w,c
  3949  000FC8  2009               	addwfc	?_strlen+1,w,c
  3950  000FCA  6E1B               	movwf	?_pad+1,c
  3951  000FCC  0012               	return		;funcret
  3952  000FCE                     __end_of_pad:
  3953                           	opt callstack 0
  3954                           
  3955 ;; *************** function _strlen *****************
  3956 ;; Defined at:
  3957 ;;		line 12 in file "C:\Program Files (x86)\Microchip\xc8\v2.05\pic\sources\c99\common\strlen.c"
  3958 ;; Parameters:    Size  Location     Type
  3959 ;;  s               2    7[COMRAM] PTR const unsigned char 
  3960 ;;		 -> dbuf(32), 
  3961 ;; Auto vars:     Size  Location     Type
  3962 ;;  a               2    9[COMRAM] PTR const unsigned char 
  3963 ;;		 -> dbuf(32), 
  3964 ;; Return value:  Size  Location     Type
  3965 ;;                  2    7[COMRAM] unsigned int 
  3966 ;; Registers used:
  3967 ;;		wreg, fsr2l, fsr2h, status,2, status,0
  3968 ;; Tracked objects:
  3969 ;;		On entry : 0/0
  3970 ;;		On exit  : 0/0
  3971 ;;		Unchanged: 0/0
  3972 ;; Data sizes:     COMRAM   BANK0   BANK1   BANK2   BANK3   BANK4   BANK5
  3973 ;;      Params:         2       0       0       0       0       0       0
  3974 ;;      Locals:         2       0       0       0       0       0       0
  3975 ;;      Temps:          0       0       0       0       0       0       0
  3976 ;;      Totals:         4       0       0       0       0       0       0
  3977 ;;Total ram usage:        4 bytes
  3978 ;; Hardware stack levels used:    1
  3979 ;; Hardware stack levels required when called:    3
  3980 ;; This function calls:
  3981 ;;		Nothing
  3982 ;; This function is called by:
  3983 ;;		_pad
  3984 ;; This function uses a non-reentrant model
  3985 ;;
  3986                           
  3987                           	psect	text11
  3988  0013F6                     __ptext11:
  3989                           	opt callstack 0
  3990  0013F6                     _strlen:
  3991                           	opt callstack 21
  3992                           
  3993                           ;incstack = 0
  3994  0013F6  C008  F00A         	movff	strlen@s,strlen@a
  3995  0013FA  C009  F00B         	movff	strlen@s+1,strlen@a+1
  3996  0013FE  D002               	goto	l2974
  3997  001400                     l2972:
  3998  001400  4A08               	infsnz	strlen@s,f,c
  3999  001402  2A09               	incf	strlen@s+1,f,c
  4000  001404                     l2974:
  4001  001404  C008  FFD9         	movff	strlen@s,fsr2l
  4002  001408  C009  FFDA         	movff	strlen@s+1,fsr2h
  4003  00140C  50DF               	movf	indf2,w,c
  4004  00140E  A4D8               	btfss	status,2,c
  4005  001410  D7F7               	goto	l2972
  4006  001412  500A               	movf	strlen@a,w,c
  4007  001414  5C08               	subwf	strlen@s,w,c
  4008  001416  6E08               	movwf	?_strlen,c
  4009  001418  500B               	movf	strlen@a+1,w,c
  4010  00141A  5809               	subwfb	strlen@s+1,w,c
  4011  00141C  6E09               	movwf	?_strlen+1,c
  4012  00141E  0012               	return		;funcret
  4013  001420                     __end_of_strlen:
  4014                           	opt callstack 0
  4015                           
  4016 ;; *************** function _fputs *****************
  4017 ;; Defined at:
  4018 ;;		line 8 in file "C:\Program Files (x86)\Microchip\xc8\v2.05\pic\sources\c99\common\nf_fputs.c"
  4019 ;; Parameters:    Size  Location     Type
  4020 ;;  s               2   18[COMRAM] PTR const unsigned char 
  4021 ;;		 -> dbuf(32), 
  4022 ;;  fp              2   20[COMRAM] PTR struct _IO_FILE
  4023 ;;		 -> sprintf@f(6), 
  4024 ;; Auto vars:     Size  Location     Type
  4025 ;;  i               2   23[COMRAM] int 
  4026 ;;  c               1   22[COMRAM] unsigned char 
  4027 ;; Return value:  Size  Location     Type
  4028 ;;                  2   18[COMRAM] int 
  4029 ;; Registers used:
  4030 ;;		wreg, fsr1l, fsr1h, fsr2l, fsr2h, status,2, status,0, cstack
  4031 ;; Tracked objects:
  4032 ;;		On entry : 0/0
  4033 ;;		On exit  : 0/0
  4034 ;;		Unchanged: 0/0
  4035 ;; Data sizes:     COMRAM   BANK0   BANK1   BANK2   BANK3   BANK4   BANK5
  4036 ;;      Params:         4       0       0       0       0       0       0
  4037 ;;      Locals:         3       0       0       0       0       0       0
  4038 ;;      Temps:          0       0       0       0       0       0       0
  4039 ;;      Totals:         7       0       0       0       0       0       0
  4040 ;;Total ram usage:        7 bytes
  4041 ;; Hardware stack levels used:    1
  4042 ;; Hardware stack levels required when called:    6
  4043 ;; This function calls:
  4044 ;;		_fputc
  4045 ;; This function is called by:
  4046 ;;		_pad
  4047 ;; This function uses a non-reentrant model
  4048 ;;
  4049                           
  4050                           	psect	text12
  4051  0012C4                     __ptext12:
  4052                           	opt callstack 0
  4053  0012C4                     _fputs:
  4054                           	opt callstack 18
  4055                           
  4056                           ;incstack = 0
  4057  0012C4  0E00               	movlw	0
  4058  0012C6  6E19               	movwf	fputs@i+1,c
  4059  0012C8  0E00               	movlw	0
  4060  0012CA  6E18               	movwf	fputs@i,c
  4061  0012CC  D00B               	goto	l2968
  4062  0012CE                     l2964:
  4063  0012CE  C017  F00A         	movff	fputs@c,fputc@c
  4064  0012D2  6A0B               	clrf	fputc@c+1,c
  4065  0012D4  C015  F00C         	movff	fputs@fp,fputc@fp
  4066  0012D8  C016  F00D         	movff	fputs@fp+1,fputc@fp+1
  4067  0012DC  ECFD  F006         	call	_fputc	;wreg free
  4068  0012E0  4A18               	infsnz	fputs@i,f,c
  4069  0012E2  2A19               	incf	fputs@i+1,f,c
  4070  0012E4                     l2968:
  4071  0012E4  5018               	movf	fputs@i,w,c
  4072  0012E6  2413               	addwf	fputs@s,w,c
  4073  0012E8  6ED9               	movwf	fsr2l,c
  4074  0012EA  5019               	movf	fputs@i+1,w,c
  4075  0012EC  2014               	addwfc	fputs@s+1,w,c
  4076  0012EE  6EDA               	movwf	fsr2h,c
  4077  0012F0  50DF               	movf	indf2,w,c
  4078  0012F2  6E17               	movwf	fputs@c,c
  4079  0012F4  5017               	movf	fputs@c,w,c
  4080  0012F6  B4D8               	btfsc	status,2,c
  4081  0012F8  0012               	return	
  4082  0012FA  D7E9               	goto	l2964
  4083  0012FC                     __end_of_fputs:
  4084                           	opt callstack 0
  4085                           
  4086 ;; *************** function _fputc *****************
  4087 ;; Defined at:
  4088 ;;		line 8 in file "C:\Program Files (x86)\Microchip\xc8\v2.05\pic\sources\c99\common\nf_fputc.c"
  4089 ;; Parameters:    Size  Location     Type
  4090 ;;  c               2    9[COMRAM] int 
  4091 ;;  fp              2   11[COMRAM] PTR struct _IO_FILE
  4092 ;;		 -> sprintf@f(6), 
  4093 ;; Auto vars:     Size  Location     Type
  4094 ;;		None
  4095 ;; Return value:  Size  Location     Type
  4096 ;;                  2    9[COMRAM] int 
  4097 ;; Registers used:
  4098 ;;		wreg, fsr1l, fsr1h, fsr2l, fsr2h, status,2, status,0, cstack
  4099 ;; Tracked objects:
  4100 ;;		On entry : 0/0
  4101 ;;		On exit  : 0/0
  4102 ;;		Unchanged: 0/0
  4103 ;; Data sizes:     COMRAM   BANK0   BANK1   BANK2   BANK3   BANK4   BANK5
  4104 ;;      Params:         4       0       0       0       0       0       0
  4105 ;;      Locals:         0       0       0       0       0       0       0
  4106 ;;      Temps:          5       0       0       0       0       0       0
  4107 ;;      Totals:         9       0       0       0       0       0       0
  4108 ;;Total ram usage:        9 bytes
  4109 ;; Hardware stack levels used:    1
  4110 ;; Hardware stack levels required when called:    5
  4111 ;; This function calls:
  4112 ;;		_putch
  4113 ;; This function is called by:
  4114 ;;		_pad
  4115 ;;		_vfpfcnvrt
  4116 ;;		_fputs
  4117 ;; This function uses a non-reentrant model
  4118 ;;
  4119                           
  4120                           	psect	text13
  4121  000DFA                     __ptext13:
  4122                           	opt callstack 0
  4123  000DFA                     _fputc:
  4124                           	opt callstack 21
  4125                           
  4126                           ;incstack = 0
  4127  000DFA  500C               	movf	fputc@fp,w,c
  4128  000DFC  100D               	iorwf	fputc@fp+1,w,c
  4129  000DFE  B4D8               	btfsc	status,2,c
  4130  000E00  D004               	goto	u2090
  4131  000E02  500C               	movf	fputc@fp,w,c
  4132  000E04  100D               	iorwf	fputc@fp+1,w,c
  4133  000E06  A4D8               	btfss	status,2,c
  4134  000E08  D004               	goto	l2954
  4135  000E0A                     u2090:
  4136  000E0A  500A               	movf	fputc@c,w,c
  4137  000E0C  EC46  F00A         	call	_putch
  4138  000E10  0012               	return	
  4139  000E12                     l2954:
  4140  000E12  EE20 F004          	lfsr	2,4
  4141  000E16  500C               	movf	fputc@fp,w,c
  4142  000E18  26D9               	addwf	fsr2l,f,c
  4143  000E1A  500D               	movf	fputc@fp+1,w,c
  4144  000E1C  22DA               	addwfc	fsr2h,f,c
  4145  000E1E  50DE               	movf	postinc2,w,c
  4146  000E20  10DE               	iorwf	postinc2,w,c
  4147  000E22  B4D8               	btfsc	status,2,c
  4148  000E24  D016               	goto	u2110
  4149  000E26  EE20 F004          	lfsr	2,4
  4150  000E2A  500C               	movf	fputc@fp,w,c
  4151  000E2C  26D9               	addwf	fsr2l,f,c
  4152  000E2E  500D               	movf	fputc@fp+1,w,c
  4153  000E30  22DA               	addwfc	fsr2h,f,c
  4154  000E32  EE10 F002          	lfsr	1,2
  4155  000E36  500C               	movf	fputc@fp,w,c
  4156  000E38  26E1               	addwf	fsr1l,f,c
  4157  000E3A  500D               	movf	fputc@fp+1,w,c
  4158  000E3C  22E2               	addwfc	fsr1h,f,c
  4159  000E3E  50DE               	movf	postinc2,w,c
  4160  000E40  5CE6               	subwf	postinc1,w,c
  4161  000E42  50E6               	movf	postinc1,w,c
  4162  000E44  0A80               	xorlw	128
  4163  000E46  6E12               	movwf	(??_fputc+4)& (0+255),c
  4164  000E48  50DE               	movf	postinc2,w,c
  4165  000E4A  0A80               	xorlw	128
  4166  000E4C  5812               	subwfb	(??_fputc+4)& (0+255),w,c
  4167  000E4E  B0D8               	btfsc	status,0,c
  4168  000E50  0012               	return	
  4169  000E52                     u2110:
  4170  000E52  EE20 F002          	lfsr	2,2
  4171  000E56  500C               	movf	fputc@fp,w,c
  4172  000E58  26D9               	addwf	fsr2l,f,c
  4173  000E5A  500D               	movf	fputc@fp+1,w,c
  4174  000E5C  22DA               	addwfc	fsr2h,f,c
  4175  000E5E  CFDE F00E          	movff	postinc2,??_fputc
  4176  000E62  CFDD F00F          	movff	postdec2,??_fputc+1
  4177  000E66  C00C  FFD9         	movff	fputc@fp,fsr2l
  4178  000E6A  C00D  FFDA         	movff	fputc@fp+1,fsr2h
  4179  000E6E  CFDE F010          	movff	postinc2,??_fputc+2
  4180  000E72  CFDD F011          	movff	postdec2,??_fputc+3
  4181  000E76  500E               	movf	??_fputc,w,c
  4182  000E78  2410               	addwf	??_fputc+2,w,c
  4183  000E7A  6ED9               	movwf	fsr2l,c
  4184  000E7C  500F               	movf	??_fputc+1,w,c
  4185  000E7E  2011               	addwfc	??_fputc+3,w,c
  4186  000E80  6EDA               	movwf	fsr2h,c
  4187  000E82  C00A  FFDF         	movff	fputc@c,indf2
  4188  000E86  EE20 F002          	lfsr	2,2
  4189  000E8A  500C               	movf	fputc@fp,w,c
  4190  000E8C  26D9               	addwf	fsr2l,f,c
  4191  000E8E  500D               	movf	fputc@fp+1,w,c
  4192  000E90  22DA               	addwfc	fsr2h,f,c
  4193  000E92  2ADE               	incf	postinc2,f,c
  4194  000E94  0E00               	movlw	0
  4195  000E96  22DD               	addwfc	postdec2,f,c
  4196  000E98  0012               	return		;funcret
  4197  000E9A                     __end_of_fputc:
  4198                           	opt callstack 0
  4199                           
  4200 ;; *************** function _putch *****************
  4201 ;; Defined at:
  4202 ;;		line 145 in file "mcc_generated_files/eusart1.c"
  4203 ;; Parameters:    Size  Location     Type
  4204 ;;  txData          1    wreg     unsigned char 
  4205 ;; Auto vars:     Size  Location     Type
  4206 ;;  txData          1    8[COMRAM] unsigned char 
  4207 ;; Return value:  Size  Location     Type
  4208 ;;                  1    wreg      void 
  4209 ;; Registers used:
  4210 ;;		wreg, status,2, cstack
  4211 ;; Tracked objects:
  4212 ;;		On entry : 0/0
  4213 ;;		On exit  : 0/0
  4214 ;;		Unchanged: 0/0
  4215 ;; Data sizes:     COMRAM   BANK0   BANK1   BANK2   BANK3   BANK4   BANK5
  4216 ;;      Params:         0       0       0       0       0       0       0
  4217 ;;      Locals:         1       0       0       0       0       0       0
  4218 ;;      Temps:          0       0       0       0       0       0       0
  4219 ;;      Totals:         1       0       0       0       0       0       0
  4220 ;;Total ram usage:        1 bytes
  4221 ;; Hardware stack levels used:    1
  4222 ;; Hardware stack levels required when called:    4
  4223 ;; This function calls:
  4224 ;;		_EUSART1_Write
  4225 ;; This function is called by:
  4226 ;;		_fputc
  4227 ;; This function uses a non-reentrant model
  4228 ;;
  4229                           
  4230                           	psect	text14
  4231  00148C                     __ptext14:
  4232                           	opt callstack 0
  4233  00148C                     _putch:
  4234                           	opt callstack 21
  4235                           
  4236                           ;incstack = 0
  4237                           ;putch@txData stored from wreg
  4238  00148C  6E09               	movwf	putch@txData,c
  4239                           
  4240                           ;mcc_generated_files/eusart1.c: 145: void putch(char txData);mcc_generated_files/eusart1
      +                          .c: 146: {;mcc_generated_files/eusart1.c: 147:     EUSART1_Write(txData);
  4241  00148E  5009               	movf	putch@txData,w,c
  4242  001490  EC3A  F00A         	call	_EUSART1_Write
  4243  001494  0012               	return		;funcret
  4244  001496                     __end_of_putch:
  4245                           	opt callstack 0
  4246                           
  4247 ;; *************** function _sendString *****************
  4248 ;; Defined at:
  4249 ;;		line 56 in file "main.c"
  4250 ;; Parameters:    Size  Location     Type
  4251 ;;  str             2    8[COMRAM] PTR unsigned char 
  4252 ;;		 -> STR_42(20), STR_41(16), STR_40(15), STR_39(22), 
  4253 ;;		 -> STR_38(22), STR_37(22), STR_36(22), STR_35(22), 
  4254 ;;		 -> STR_34(22), STR_33(22), STR_32(22), STR_31(22), 
  4255 ;;		 -> STR_30(22), STR_29(22), STR_28(22), STR_27(22), 
  4256 ;;		 -> STR_26(22), STR_25(22), STR_24(22), STR_23(22), 
  4257 ;;		 -> STR_22(22), STR_21(22), STR_20(22), STR_19(17), 
  4258 ;;		 -> STR_18(17), STR_17(33), STR_16(82), STR_15(10), 
  4259 ;;		 -> STR_14(33), STR_13(37), STR_12(37), STR_11(53), 
  4260 ;;		 -> STR_10(32), STR_9(31), STR_8(10), STR_7(48), 
  4261 ;;		 -> STR_6(10), STR_4(10), statusReport@buffer(80), STR_2(10), 
  4262 ;;		 -> STR_1(82), 
  4263 ;; Auto vars:     Size  Location     Type
  4264 ;;		None
  4265 ;; Return value:  Size  Location     Type
  4266 ;;                  1    wreg      void 
  4267 ;; Registers used:
  4268 ;;		wreg, fsr1l, fsr1h, status,2, status,0, tblptrl, tblptrh, tblptru, cstack
  4269 ;; Tracked objects:
  4270 ;;		On entry : 0/0
  4271 ;;		On exit  : 0/0
  4272 ;;		Unchanged: 0/0
  4273 ;; Data sizes:     COMRAM   BANK0   BANK1   BANK2   BANK3   BANK4   BANK5
  4274 ;;      Params:         2       0       0       0       0       0       0
  4275 ;;      Locals:         0       0       0       0       0       0       0
  4276 ;;      Temps:          0       0       0       0       0       0       0
  4277 ;;      Totals:         2       0       0       0       0       0       0
  4278 ;;Total ram usage:        2 bytes
  4279 ;; Hardware stack levels used:    1
  4280 ;; Hardware stack levels required when called:    4
  4281 ;; This function calls:
  4282 ;;		_EUSART1_Write
  4283 ;; This function is called by:
  4284 ;;		_statusReport
  4285 ;;		_main
  4286 ;; This function uses a non-reentrant model
  4287 ;;
  4288                           
  4289                           	psect	text15
  4290  001076                     __ptext15:
  4291                           	opt callstack 0
  4292  001076                     _sendString:
  4293                           	opt callstack 25
  4294                           
  4295                           ;main.c: 57:     while((*str) != '\0') {
  4296                           
  4297                           ;incstack = 0
  4298  001076  D014               	goto	l3226
  4299  001078                     l3222:
  4300                           
  4301                           ;main.c: 58:         EUSART1_Write((uint8_t)(*str));
  4302  001078  C009  FFF6         	movff	sendString@str,tblptrl
  4303  00107C  C00A  FFF7         	movff	sendString@str+1,tblptrh
  4304  001080  6AF8               	clrf	tblptru,c
  4305  001082  0E05               	movlw	(high __ramtop+-1)
  4306  001084  64F7               	cpfsgt	tblptrh,c
  4307  001086  D003               	bra	u2547
  4308  001088  0008               	tblrd		*
  4309  00108A  50F5               	movf	tablat,w,c
  4310  00108C  D005               	bra	u2540
  4311  00108E                     u2547:
  4312  00108E  CFF6 FFE1          	movff	tblptrl,fsr1l
  4313  001092  CFF7 FFE2          	movff	tblptrh,fsr1h
  4314  001096  50E7               	movf	indf1,w,c
  4315  001098                     u2540:
  4316  001098  EC3A  F00A         	call	_EUSART1_Write
  4317                           
  4318                           ;main.c: 59:         str++;
  4319  00109C  4A09               	infsnz	sendString@str,f,c
  4320  00109E  2A0A               	incf	sendString@str+1,f,c
  4321  0010A0                     l3226:
  4322                           
  4323                           ;main.c: 57:     while((*str) != '\0') {
  4324  0010A0  C009  FFF6         	movff	sendString@str,tblptrl
  4325  0010A4  C00A  FFF7         	movff	sendString@str+1,tblptrh
  4326  0010A8  6AF8               	clrf	tblptru,c
  4327  0010AA  0E05               	movlw	(high __ramtop+-1)
  4328  0010AC  64F7               	cpfsgt	tblptrh,c
  4329  0010AE  D003               	bra	u2557
  4330  0010B0  0008               	tblrd		*
  4331  0010B2  50F5               	movf	tablat,w,c
  4332  0010B4  D005               	bra	u2550
  4333  0010B6                     u2557:
  4334  0010B6  CFF6 FFE1          	movff	tblptrl,fsr1l
  4335  0010BA  CFF7 FFE2          	movff	tblptrh,fsr1h
  4336  0010BE  50E7               	movf	indf1,w,c
  4337  0010C0                     u2550:
  4338  0010C0  0900               	iorlw	0
  4339  0010C2  B4D8               	btfsc	status,2,c
  4340  0010C4  0012               	return	
  4341  0010C6  D7D8               	goto	l3222
  4342  0010C8                     __end_of_sendString:
  4343                           	opt callstack 0
  4344                           
  4345 ;; *************** function _EUSART1_Write *****************
  4346 ;; Defined at:
  4347 ;;		line 131 in file "mcc_generated_files/eusart1.c"
  4348 ;; Parameters:    Size  Location     Type
  4349 ;;  txData          1    wreg     unsigned char 
  4350 ;; Auto vars:     Size  Location     Type
  4351 ;;  txData          1    7[COMRAM] unsigned char 
  4352 ;; Return value:  Size  Location     Type
  4353 ;;                  1    wreg      void 
  4354 ;; Registers used:
  4355 ;;		wreg
  4356 ;; Tracked objects:
  4357 ;;		On entry : 0/0
  4358 ;;		On exit  : 0/0
  4359 ;;		Unchanged: 0/0
  4360 ;; Data sizes:     COMRAM   BANK0   BANK1   BANK2   BANK3   BANK4   BANK5
  4361 ;;      Params:         0       0       0       0       0       0       0
  4362 ;;      Locals:         1       0       0       0       0       0       0
  4363 ;;      Temps:          0       0       0       0       0       0       0
  4364 ;;      Totals:         1       0       0       0       0       0       0
  4365 ;;Total ram usage:        1 bytes
  4366 ;; Hardware stack levels used:    1
  4367 ;; Hardware stack levels required when called:    3
  4368 ;; This function calls:
  4369 ;;		Nothing
  4370 ;; This function is called by:
  4371 ;;		_putch
  4372 ;;		_sendString
  4373 ;; This function uses a non-reentrant model
  4374 ;;
  4375                           
  4376                           	psect	text16
  4377  001474                     __ptext16:
  4378                           	opt callstack 0
  4379  001474                     _EUSART1_Write:
  4380                           	opt callstack 21
  4381                           
  4382                           ;incstack = 0
  4383                           ;EUSART1_Write@txData stored from wreg
  4384  001474  6E08               	movwf	EUSART1_Write@txData,c
  4385  001476                     
  4386                           ;mcc_generated_files/eusart1.c: 133:     while(0 == PIR1bits.TX1IF)
  4387                           
  4388                           ;mcc_generated_files/eusart1.c: 134:     {;mcc_generated_files/eusart1.c: 135:     }
  4389  001476  A89E               	btfss	3998,4,c	;volatile
  4390  001478  D7FE               	goto	l2942
  4391                           
  4392                           ;mcc_generated_files/eusart1.c: 137:     TXREG1 = txData;
  4393  00147A  C008  FFAD         	movff	EUSART1_Write@txData,4013	;volatile
  4394  00147E  0012               	return		;funcret
  4395  001480                     __end_of_EUSART1_Write:
  4396                           	opt callstack 0
  4397                           
  4398 ;; *************** function _SYSTEM_Initialize *****************
  4399 ;; Defined at:
  4400 ;;		line 50 in file "mcc_generated_files/mcc.c"
  4401 ;; Parameters:    Size  Location     Type
  4402 ;;		None
  4403 ;; Auto vars:     Size  Location     Type
  4404 ;;		None
  4405 ;; Return value:  Size  Location     Type
  4406 ;;                  1    wreg      void 
  4407 ;; Registers used:
  4408 ;;		wreg, status,2, status,0, cstack
  4409 ;; Tracked objects:
  4410 ;;		On entry : 0/0
  4411 ;;		On exit  : 0/0
  4412 ;;		Unchanged: 0/0
  4413 ;; Data sizes:     COMRAM   BANK0   BANK1   BANK2   BANK3   BANK4   BANK5
  4414 ;;      Params:         0       0       0       0       0       0       0
  4415 ;;      Locals:         0       0       0       0       0       0       0
  4416 ;;      Temps:          0       0       0       0       0       0       0
  4417 ;;      Totals:         0       0       0       0       0       0       0
  4418 ;;Total ram usage:        0 bytes
  4419 ;; Hardware stack levels used:    1
  4420 ;; Hardware stack levels required when called:    5
  4421 ;; This function calls:
  4422 ;;		_EUSART1_Initialize
  4423 ;;		_I2C1_Initialize
  4424 ;;		_INTERRUPT_Initialize
  4425 ;;		_OSCILLATOR_Initialize
  4426 ;;		_PIN_MANAGER_Initialize
  4427 ;; This function is called by:
  4428 ;;		_main
  4429 ;; This function uses a non-reentrant model
  4430 ;;
  4431                           
  4432                           	psect	text17
  4433  00143A                     __ptext17:
  4434                           	opt callstack 0
  4435  00143A                     _SYSTEM_Initialize:
  4436                           	opt callstack 25
  4437                           
  4438                           ;mcc_generated_files/mcc.c: 53:     INTERRUPT_Initialize();
  4439                           
  4440                           ;incstack = 0
  4441  00143A  EC5E  F00A         	call	_INTERRUPT_Initialize	;wreg free
  4442                           
  4443                           ;mcc_generated_files/mcc.c: 54:     PIN_MANAGER_Initialize();
  4444  00143E  ECE5  F009         	call	_PIN_MANAGER_Initialize	;wreg free
  4445                           
  4446                           ;mcc_generated_files/mcc.c: 55:     OSCILLATOR_Initialize();
  4447  001442  EC33  F00A         	call	_OSCILLATOR_Initialize	;wreg free
  4448                           
  4449                           ;mcc_generated_files/mcc.c: 56:     I2C1_Initialize();
  4450  001446  EC99  F009         	call	_I2C1_Initialize	;wreg free
  4451                           
  4452                           ;mcc_generated_files/mcc.c: 57:     EUSART1_Initialize();
  4453  00144A  EC22  F009         	call	_EUSART1_Initialize	;wreg free
  4454  00144E  0012               	return		;funcret
  4455  001450                     __end_of_SYSTEM_Initialize:
  4456                           	opt callstack 0
  4457                           
  4458 ;; *************** function _PIN_MANAGER_Initialize *****************
  4459 ;; Defined at:
  4460 ;;		line 55 in file "mcc_generated_files/pin_manager.c"
  4461 ;; Parameters:    Size  Location     Type
  4462 ;;		None
  4463 ;; Auto vars:     Size  Location     Type
  4464 ;;		None
  4465 ;; Return value:  Size  Location     Type
  4466 ;;                  1    wreg      void 
  4467 ;; Registers used:
  4468 ;;		wreg, status,2
  4469 ;; Tracked objects:
  4470 ;;		On entry : 0/0
  4471 ;;		On exit  : 0/0
  4472 ;;		Unchanged: 0/0
  4473 ;; Data sizes:     COMRAM   BANK0   BANK1   BANK2   BANK3   BANK4   BANK5
  4474 ;;      Params:         0       0       0       0       0       0       0
  4475 ;;      Locals:         0       0       0       0       0       0       0
  4476 ;;      Temps:          0       0       0       0       0       0       0
  4477 ;;      Totals:         0       0       0       0       0       0       0
  4478 ;;Total ram usage:        0 bytes
  4479 ;; Hardware stack levels used:    1
  4480 ;; Hardware stack levels required when called:    3
  4481 ;; This function calls:
  4482 ;;		Nothing
  4483 ;; This function is called by:
  4484 ;;		_SYSTEM_Initialize
  4485 ;; This function uses a non-reentrant model
  4486 ;;
  4487                           
  4488                           	psect	text18
  4489  0013CA                     __ptext18:
  4490                           	opt callstack 0
  4491  0013CA                     _PIN_MANAGER_Initialize:
  4492                           	opt callstack 26
  4493                           
  4494                           ;mcc_generated_files/pin_manager.c: 60:     LATA = 0x00;
  4495                           
  4496                           ;incstack = 0
  4497  0013CA  0E00               	movlw	0
  4498  0013CC  6E89               	movwf	3977,c	;volatile
  4499                           
  4500                           ;mcc_generated_files/pin_manager.c: 61:     LATB = 0x00;
  4501  0013CE  0E00               	movlw	0
  4502  0013D0  6E8A               	movwf	3978,c	;volatile
  4503                           
  4504                           ;mcc_generated_files/pin_manager.c: 62:     LATC = 0x00;
  4505  0013D2  0E00               	movlw	0
  4506  0013D4  6E8B               	movwf	3979,c	;volatile
  4507                           
  4508                           ;mcc_generated_files/pin_manager.c: 67:     TRISA = 0xFF;
  4509  0013D6  6892               	setf	3986,c	;volatile
  4510                           
  4511                           ;mcc_generated_files/pin_manager.c: 68:     TRISB = 0xF0;
  4512  0013D8  0EF0               	movlw	240
  4513  0013DA  6E93               	movwf	3987,c	;volatile
  4514                           
  4515                           ;mcc_generated_files/pin_manager.c: 69:     TRISC = 0x9F;
  4516  0013DC  0E9F               	movlw	159
  4517  0013DE  6E94               	movwf	3988,c	;volatile
  4518                           
  4519                           ;mcc_generated_files/pin_manager.c: 74:     ANSELC = 0x24;
  4520  0013E0  0E24               	movlw	36
  4521  0013E2  010F               	movlb	15	; () banked
  4522  0013E4  6F3A               	movwf	58,b	;volatile
  4523                           
  4524                           ;mcc_generated_files/pin_manager.c: 75:     ANSELB = 0x3F;
  4525  0013E6  0E3F               	movlw	63
  4526  0013E8  6F39               	movwf	57,b	;volatile
  4527                           
  4528                           ;mcc_generated_files/pin_manager.c: 76:     ANSELA = 0x2F;
  4529  0013EA  0E2F               	movlw	47
  4530  0013EC  6F38               	movwf	56,b	;volatile
  4531                           
  4532                           ;mcc_generated_files/pin_manager.c: 81:     WPUB = 0x00;
  4533  0013EE  0E00               	movlw	0
  4534  0013F0  6E61               	movwf	3937,c	;volatile
  4535                           
  4536                           ; BSR set to: 15
  4537                           ;mcc_generated_files/pin_manager.c: 82:     INTCON2bits.nRBPU = 1;
  4538  0013F2  8EF1               	bsf	4081,7,c	;volatile
  4539                           
  4540                           ; BSR set to: 15
  4541  0013F4  0012               	return		;funcret
  4542  0013F6                     __end_of_PIN_MANAGER_Initialize:
  4543                           	opt callstack 0
  4544                           
  4545 ;; *************** function _OSCILLATOR_Initialize *****************
  4546 ;; Defined at:
  4547 ;;		line 60 in file "mcc_generated_files/mcc.c"
  4548 ;; Parameters:    Size  Location     Type
  4549 ;;		None
  4550 ;; Auto vars:     Size  Location     Type
  4551 ;;		None
  4552 ;; Return value:  Size  Location     Type
  4553 ;;                  1    wreg      void 
  4554 ;; Registers used:
  4555 ;;		wreg, status,2
  4556 ;; Tracked objects:
  4557 ;;		On entry : 0/0
  4558 ;;		On exit  : 0/0
  4559 ;;		Unchanged: 0/0
  4560 ;; Data sizes:     COMRAM   BANK0   BANK1   BANK2   BANK3   BANK4   BANK5
  4561 ;;      Params:         0       0       0       0       0       0       0
  4562 ;;      Locals:         0       0       0       0       0       0       0
  4563 ;;      Temps:          0       0       0       0       0       0       0
  4564 ;;      Totals:         0       0       0       0       0       0       0
  4565 ;;Total ram usage:        0 bytes
  4566 ;; Hardware stack levels used:    1
  4567 ;; Hardware stack levels required when called:    3
  4568 ;; This function calls:
  4569 ;;		Nothing
  4570 ;; This function is called by:
  4571 ;;		_SYSTEM_Initialize
  4572 ;; This function uses a non-reentrant model
  4573 ;;
  4574                           
  4575                           	psect	text19
  4576  001466                     __ptext19:
  4577                           	opt callstack 0
  4578  001466                     _OSCILLATOR_Initialize:
  4579                           	opt callstack 26
  4580                           
  4581                           ;mcc_generated_files/mcc.c: 63:     OSCCON = 0x30;
  4582                           
  4583                           ; BSR set to: 15
  4584                           ;incstack = 0
  4585  001466  0E30               	movlw	48
  4586  001468  6ED3               	movwf	4051,c	;volatile
  4587                           
  4588                           ;mcc_generated_files/mcc.c: 65:     OSCCON2 = 0x04;
  4589  00146A  0E04               	movlw	4
  4590  00146C  6ED2               	movwf	4050,c	;volatile
  4591                           
  4592                           ;mcc_generated_files/mcc.c: 67:     OSCTUNE = 0x00;
  4593  00146E  0E00               	movlw	0
  4594  001470  6E9B               	movwf	3995,c	;volatile
  4595  001472  0012               	return		;funcret
  4596  001474                     __end_of_OSCILLATOR_Initialize:
  4597                           	opt callstack 0
  4598                           
  4599 ;; *************** function _INTERRUPT_Initialize *****************
  4600 ;; Defined at:
  4601 ;;		line 52 in file "mcc_generated_files/interrupt_manager.c"
  4602 ;; Parameters:    Size  Location     Type
  4603 ;;		None
  4604 ;; Auto vars:     Size  Location     Type
  4605 ;;		None
  4606 ;; Return value:  Size  Location     Type
  4607 ;;                  1    wreg      void 
  4608 ;; Registers used:
  4609 ;;		None
  4610 ;; Tracked objects:
  4611 ;;		On entry : 0/0
  4612 ;;		On exit  : 0/0
  4613 ;;		Unchanged: 0/0
  4614 ;; Data sizes:     COMRAM   BANK0   BANK1   BANK2   BANK3   BANK4   BANK5
  4615 ;;      Params:         0       0       0       0       0       0       0
  4616 ;;      Locals:         0       0       0       0       0       0       0
  4617 ;;      Temps:          0       0       0       0       0       0       0
  4618 ;;      Totals:         0       0       0       0       0       0       0
  4619 ;;Total ram usage:        0 bytes
  4620 ;; Hardware stack levels used:    1
  4621 ;; Hardware stack levels required when called:    3
  4622 ;; This function calls:
  4623 ;;		Nothing
  4624 ;; This function is called by:
  4625 ;;		_SYSTEM_Initialize
  4626 ;; This function uses a non-reentrant model
  4627 ;;
  4628                           
  4629                           	psect	text20
  4630  0014BC                     __ptext20:
  4631                           	opt callstack 0
  4632  0014BC                     _INTERRUPT_Initialize:
  4633                           	opt callstack 26
  4634                           
  4635                           ;mcc_generated_files/interrupt_manager.c: 55:     RCONbits.IPEN = 0;
  4636                           
  4637                           ;incstack = 0
  4638  0014BC  9ED0               	bcf	4048,7,c	;volatile
  4639  0014BE  0012               	return		;funcret
  4640  0014C0                     __end_of_INTERRUPT_Initialize:
  4641                           	opt callstack 0
  4642                           
  4643 ;; *************** function _I2C1_Initialize *****************
  4644 ;; Defined at:
  4645 ;;		line 198 in file "mcc_generated_files/i2c1.c"
  4646 ;; Parameters:    Size  Location     Type
  4647 ;;		None
  4648 ;; Auto vars:     Size  Location     Type
  4649 ;;		None
  4650 ;; Return value:  Size  Location     Type
  4651 ;;                  1    wreg      void 
  4652 ;; Registers used:
  4653 ;;		wreg, status,2, status,0
  4654 ;; Tracked objects:
  4655 ;;		On entry : 0/0
  4656 ;;		On exit  : 0/0
  4657 ;;		Unchanged: 0/0
  4658 ;; Data sizes:     COMRAM   BANK0   BANK1   BANK2   BANK3   BANK4   BANK5
  4659 ;;      Params:         0       0       0       0       0       0       0
  4660 ;;      Locals:         0       0       0       0       0       0       0
  4661 ;;      Temps:          0       0       0       0       0       0       0
  4662 ;;      Totals:         0       0       0       0       0       0       0
  4663 ;;Total ram usage:        0 bytes
  4664 ;; Hardware stack levels used:    1
  4665 ;; Hardware stack levels required when called:    3
  4666 ;; This function calls:
  4667 ;;		Nothing
  4668 ;; This function is called by:
  4669 ;;		_SYSTEM_Initialize
  4670 ;; This function uses a non-reentrant model
  4671 ;;
  4672                           
  4673                           	psect	text21
  4674  001332                     __ptext21:
  4675                           	opt callstack 0
  4676  001332                     _I2C1_Initialize:
  4677                           	opt callstack 26
  4678                           
  4679                           ;mcc_generated_files/i2c1.c: 200:     i2c1_object.pTrHead = i2c1_tr_queue;
  4680                           
  4681                           ;incstack = 0
  4682  001332  0E82               	movlw	low _i2c1_tr_queue
  4683  001334  0100               	movlb	0	; () banked
  4684  001336  6F62               	movwf	(_i2c1_object+2)& (0+255),b
  4685  001338  0E00               	movlw	high _i2c1_tr_queue
  4686  00133A  6F63               	movwf	(_i2c1_object+3)& (0+255),b
  4687                           
  4688                           ;mcc_generated_files/i2c1.c: 201:     i2c1_object.pTrTail = i2c1_tr_queue;
  4689  00133C  0E82               	movlw	low _i2c1_tr_queue
  4690  00133E  6F60               	movwf	_i2c1_object& (0+255),b
  4691  001340  0E00               	movlw	high _i2c1_tr_queue
  4692  001342  6F61               	movwf	(_i2c1_object+1)& (0+255),b
  4693                           
  4694                           ; BSR set to: 0
  4695                           ;mcc_generated_files/i2c1.c: 202:     i2c1_object.trStatus.s.empty = 1;
  4696  001344  8364               	bsf	(_i2c1_object+4)& (0+255),1,b
  4697                           
  4698                           ; BSR set to: 0
  4699                           ;mcc_generated_files/i2c1.c: 203:     i2c1_object.trStatus.s.full = 0;
  4700  001346  9164               	bcf	(_i2c1_object+4)& (0+255),0,b
  4701                           
  4702                           ; BSR set to: 0
  4703                           ;mcc_generated_files/i2c1.c: 205:     i2c1_object.i2cErrors = 0;
  4704  001348  0E00               	movlw	0
  4705  00134A  6F66               	movwf	(_i2c1_object+6)& (0+255),b
  4706                           
  4707                           ; BSR set to: 0
  4708                           ;mcc_generated_files/i2c1.c: 208:     SSP1STAT = 0x80;
  4709  00134C  0E80               	movlw	128
  4710  00134E  6EC7               	movwf	4039,c	;volatile
  4711                           
  4712                           ; BSR set to: 0
  4713                           ;mcc_generated_files/i2c1.c: 210:     SSP1CON1 = 0x28;
  4714  001350  0E28               	movlw	40
  4715  001352  6EC6               	movwf	4038,c	;volatile
  4716                           
  4717                           ; BSR set to: 0
  4718                           ;mcc_generated_files/i2c1.c: 212:     SSP1CON3 = 0x00;
  4719  001354  0E00               	movlw	0
  4720  001356  6ECB               	movwf	4043,c	;volatile
  4721                           
  4722                           ; BSR set to: 0
  4723                           ;mcc_generated_files/i2c1.c: 214:     SSP1ADD = 0x03;
  4724  001358  0E03               	movlw	3
  4725  00135A  6EC8               	movwf	4040,c	;volatile
  4726                           
  4727                           ; BSR set to: 0
  4728                           ;mcc_generated_files/i2c1.c: 217:     PIR1bits.SSP1IF = 0;
  4729  00135C  969E               	bcf	3998,3,c	;volatile
  4730                           
  4731                           ; BSR set to: 0
  4732                           ;mcc_generated_files/i2c1.c: 218:     PIR2bits.BCL1IF = 0;
  4733  00135E  96A1               	bcf	4001,3,c	;volatile
  4734                           
  4735                           ; BSR set to: 0
  4736                           ;mcc_generated_files/i2c1.c: 221:     PIE1bits.SSP1IE = 1;
  4737  001360  869D               	bsf	3997,3,c	;volatile
  4738                           
  4739                           ; BSR set to: 0
  4740                           ;mcc_generated_files/i2c1.c: 222:     PIE2bits.BCL1IE = 1;
  4741  001362  86A0               	bsf	4000,3,c	;volatile
  4742                           
  4743                           ; BSR set to: 0
  4744  001364  0012               	return		;funcret
  4745  001366                     __end_of_I2C1_Initialize:
  4746                           	opt callstack 0
  4747                           
  4748 ;; *************** function _EUSART1_Initialize *****************
  4749 ;; Defined at:
  4750 ;;		line 65 in file "mcc_generated_files/eusart1.c"
  4751 ;; Parameters:    Size  Location     Type
  4752 ;;		None
  4753 ;; Auto vars:     Size  Location     Type
  4754 ;;		None
  4755 ;; Return value:  Size  Location     Type
  4756 ;;                  1    wreg      void 
  4757 ;; Registers used:
  4758 ;;		wreg, status,2, status,0, cstack
  4759 ;; Tracked objects:
  4760 ;;		On entry : 0/0
  4761 ;;		On exit  : 0/0
  4762 ;;		Unchanged: 0/0
  4763 ;; Data sizes:     COMRAM   BANK0   BANK1   BANK2   BANK3   BANK4   BANK5
  4764 ;;      Params:         0       0       0       0       0       0       0
  4765 ;;      Locals:         0       0       0       0       0       0       0
  4766 ;;      Temps:          0       0       0       0       0       0       0
  4767 ;;      Totals:         0       0       0       0       0       0       0
  4768 ;;Total ram usage:        0 bytes
  4769 ;; Hardware stack levels used:    1
  4770 ;; Hardware stack levels required when called:    4
  4771 ;; This function calls:
  4772 ;;		_EUSART1_SetErrorHandler
  4773 ;;		_EUSART1_SetFramingErrorHandler
  4774 ;;		_EUSART1_SetOverrunErrorHandler
  4775 ;; This function is called by:
  4776 ;;		_SYSTEM_Initialize
  4777 ;; This function uses a non-reentrant model
  4778 ;;
  4779                           
  4780                           	psect	text22
  4781  001244                     __ptext22:
  4782                           	opt callstack 0
  4783  001244                     _EUSART1_Initialize:
  4784                           	opt callstack 25
  4785                           
  4786                           ;mcc_generated_files/eusart1.c: 70:     BAUDCON1 = 0x08;
  4787                           
  4788                           ; BSR set to: 0
  4789                           ;incstack = 0
  4790  001244  0E08               	movlw	8
  4791  001246  6EB8               	movwf	4024,c	;volatile
  4792                           
  4793                           ;mcc_generated_files/eusart1.c: 73:     RCSTA1 = 0x90;
  4794  001248  0E90               	movlw	144
  4795  00124A  6EAB               	movwf	4011,c	;volatile
  4796                           
  4797                           ;mcc_generated_files/eusart1.c: 76:     TXSTA1 = 0x24;
  4798  00124C  0E24               	movlw	36
  4799  00124E  6EAC               	movwf	4012,c	;volatile
  4800                           
  4801                           ;mcc_generated_files/eusart1.c: 79:     SPBRG1 = 0x19;
  4802  001250  0E19               	movlw	25
  4803  001252  6EAF               	movwf	4015,c	;volatile
  4804                           
  4805                           ;mcc_generated_files/eusart1.c: 82:     SPBRGH1 = 0x00;
  4806  001254  0E00               	movlw	0
  4807  001256  6EB0               	movwf	4016,c	;volatile
  4808                           
  4809                           ;mcc_generated_files/eusart1.c: 85:     EUSART1_SetFramingErrorHandler(EUSART1_DefaultFr
      +                          amingErrorHandler);
  4810  001258  0E00               	movlw	0
  4811  00125A  6E08               	movwf	EUSART1_SetFramingErrorHandler@interruptHandler,c
  4812  00125C  0E00               	movlw	0
  4813  00125E  6E09               	movwf	EUSART1_SetFramingErrorHandler@interruptHandler+1,c
  4814  001260  EC50  F00A         	call	_EUSART1_SetFramingErrorHandler	;wreg free
  4815                           
  4816                           ;mcc_generated_files/eusart1.c: 86:     EUSART1_SetOverrunErrorHandler(EUSART1_DefaultOv
      +                          errunErrorHandler);
  4817  001264  0E00               	movlw	0
  4818  001266  6E08               	movwf	EUSART1_SetOverrunErrorHandler@interruptHandler,c
  4819  001268  0E00               	movlw	0
  4820  00126A  6E09               	movwf	EUSART1_SetOverrunErrorHandler@interruptHandler+1,c
  4821  00126C  EC4B  F00A         	call	_EUSART1_SetOverrunErrorHandler	;wreg free
  4822                           
  4823                           ;mcc_generated_files/eusart1.c: 87:     EUSART1_SetErrorHandler(EUSART1_DefaultErrorHand
      +                          ler);
  4824  001270  0E00               	movlw	0
  4825  001272  6E08               	movwf	EUSART1_SetErrorHandler@interruptHandler,c
  4826  001274  0E00               	movlw	0
  4827  001276  6E09               	movwf	EUSART1_SetErrorHandler@interruptHandler+1,c
  4828  001278  EC55  F00A         	call	_EUSART1_SetErrorHandler	;wreg free
  4829                           
  4830                           ;mcc_generated_files/eusart1.c: 89:     eusart1RxLastError.status = 0;
  4831  00127C  0E00               	movlw	0
  4832  00127E  0100               	movlb	0	; () banked
  4833  001280  6F77               	movwf	_eusart1RxLastError& (0+255),b	;volatile
  4834                           
  4835                           ; BSR set to: 0
  4836  001282  0012               	return		;funcret
  4837  001284                     __end_of_EUSART1_Initialize:
  4838                           	opt callstack 0
  4839                           
  4840 ;; *************** function _EUSART1_SetOverrunErrorHandler *****************
  4841 ;; Defined at:
  4842 ;;		line 169 in file "mcc_generated_files/eusart1.c"
  4843 ;; Parameters:    Size  Location     Type
  4844 ;;  interruptHan    2    7[COMRAM] PTR FTN()void 
  4845 ;;		 -> EUSART1_DefaultOverrunErrorHandler(1), 
  4846 ;; Auto vars:     Size  Location     Type
  4847 ;;		None
  4848 ;; Return value:  Size  Location     Type
  4849 ;;                  1    wreg      void 
  4850 ;; Registers used:
  4851 ;;		wreg, status,2, status,0
  4852 ;; Tracked objects:
  4853 ;;		On entry : 0/0
  4854 ;;		On exit  : 0/0
  4855 ;;		Unchanged: 0/0
  4856 ;; Data sizes:     COMRAM   BANK0   BANK1   BANK2   BANK3   BANK4   BANK5
  4857 ;;      Params:         2       0       0       0       0       0       0
  4858 ;;      Locals:         0       0       0       0       0       0       0
  4859 ;;      Temps:          0       0       0       0       0       0       0
  4860 ;;      Totals:         2       0       0       0       0       0       0
  4861 ;;Total ram usage:        2 bytes
  4862 ;; Hardware stack levels used:    1
  4863 ;; Hardware stack levels required when called:    3
  4864 ;; This function calls:
  4865 ;;		Nothing
  4866 ;; This function is called by:
  4867 ;;		_EUSART1_Initialize
  4868 ;; This function uses a non-reentrant model
  4869 ;;
  4870                           
  4871                           	psect	text23
  4872  001496                     __ptext23:
  4873                           	opt callstack 0
  4874  001496                     _EUSART1_SetOverrunErrorHandler:
  4875                           	opt callstack 25
  4876                           
  4877                           ;mcc_generated_files/eusart1.c: 170:     EUSART1_OverrunErrorHandler = interruptHandler;
  4878                           
  4879                           ; BSR set to: 0
  4880                           ;incstack = 0
  4881  001496  C008  F0B2         	movff	EUSART1_SetOverrunErrorHandler@interruptHandler,_EUSART1_OverrunErrorHandler
  4882  00149A  C009  F0B3         	movff	EUSART1_SetOverrunErrorHandler@interruptHandler+1,_EUSART1_OverrunErrorHandler+1
  4883  00149E  0012               	return		;funcret
  4884  0014A0                     __end_of_EUSART1_SetOverrunErrorHandler:
  4885                           	opt callstack 0
  4886                           
  4887 ;; *************** function _EUSART1_SetFramingErrorHandler *****************
  4888 ;; Defined at:
  4889 ;;		line 165 in file "mcc_generated_files/eusart1.c"
  4890 ;; Parameters:    Size  Location     Type
  4891 ;;  interruptHan    2    7[COMRAM] PTR FTN()void 
  4892 ;;		 -> EUSART1_DefaultFramingErrorHandler(1), 
  4893 ;; Auto vars:     Size  Location     Type
  4894 ;;		None
  4895 ;; Return value:  Size  Location     Type
  4896 ;;                  1    wreg      void 
  4897 ;; Registers used:
  4898 ;;		wreg, status,2, status,0
  4899 ;; Tracked objects:
  4900 ;;		On entry : 0/0
  4901 ;;		On exit  : 0/0
  4902 ;;		Unchanged: 0/0
  4903 ;; Data sizes:     COMRAM   BANK0   BANK1   BANK2   BANK3   BANK4   BANK5
  4904 ;;      Params:         2       0       0       0       0       0       0
  4905 ;;      Locals:         0       0       0       0       0       0       0
  4906 ;;      Temps:          0       0       0       0       0       0       0
  4907 ;;      Totals:         2       0       0       0       0       0       0
  4908 ;;Total ram usage:        2 bytes
  4909 ;; Hardware stack levels used:    1
  4910 ;; Hardware stack levels required when called:    3
  4911 ;; This function calls:
  4912 ;;		Nothing
  4913 ;; This function is called by:
  4914 ;;		_EUSART1_Initialize
  4915 ;; This function uses a non-reentrant model
  4916 ;;
  4917                           
  4918                           	psect	text24
  4919  0014A0                     __ptext24:
  4920                           	opt callstack 0
  4921  0014A0                     _EUSART1_SetFramingErrorHandler:
  4922                           	opt callstack 25
  4923                           
  4924                           ;mcc_generated_files/eusart1.c: 166:     EUSART1_FramingErrorHandler = interruptHandler;
  4925                           
  4926                           ;incstack = 0
  4927  0014A0  C008  F0B4         	movff	EUSART1_SetFramingErrorHandler@interruptHandler,_EUSART1_FramingErrorHandler
  4928  0014A4  C009  F0B5         	movff	EUSART1_SetFramingErrorHandler@interruptHandler+1,_EUSART1_FramingErrorHandler+1
  4929  0014A8  0012               	return		;funcret
  4930  0014AA                     __end_of_EUSART1_SetFramingErrorHandler:
  4931                           	opt callstack 0
  4932                           
  4933 ;; *************** function _EUSART1_SetErrorHandler *****************
  4934 ;; Defined at:
  4935 ;;		line 173 in file "mcc_generated_files/eusart1.c"
  4936 ;; Parameters:    Size  Location     Type
  4937 ;;  interruptHan    2    7[COMRAM] PTR FTN()void 
  4938 ;;		 -> EUSART1_DefaultErrorHandler(1), 
  4939 ;; Auto vars:     Size  Location     Type
  4940 ;;		None
  4941 ;; Return value:  Size  Location     Type
  4942 ;;                  1    wreg      void 
  4943 ;; Registers used:
  4944 ;;		wreg, status,2, status,0
  4945 ;; Tracked objects:
  4946 ;;		On entry : 0/0
  4947 ;;		On exit  : 0/0
  4948 ;;		Unchanged: 0/0
  4949 ;; Data sizes:     COMRAM   BANK0   BANK1   BANK2   BANK3   BANK4   BANK5
  4950 ;;      Params:         2       0       0       0       0       0       0
  4951 ;;      Locals:         0       0       0       0       0       0       0
  4952 ;;      Temps:          0       0       0       0       0       0       0
  4953 ;;      Totals:         2       0       0       0       0       0       0
  4954 ;;Total ram usage:        2 bytes
  4955 ;; Hardware stack levels used:    1
  4956 ;; Hardware stack levels required when called:    3
  4957 ;; This function calls:
  4958 ;;		Nothing
  4959 ;; This function is called by:
  4960 ;;		_EUSART1_Initialize
  4961 ;; This function uses a non-reentrant model
  4962 ;;
  4963                           
  4964                           	psect	text25
  4965  0014AA                     __ptext25:
  4966                           	opt callstack 0
  4967  0014AA                     _EUSART1_SetErrorHandler:
  4968                           	opt callstack 25
  4969                           
  4970                           ;mcc_generated_files/eusart1.c: 174:     EUSART1_ErrorHandler = interruptHandler;
  4971                           
  4972                           ;incstack = 0
  4973  0014AA  C008  F0B0         	movff	EUSART1_SetErrorHandler@interruptHandler,_EUSART1_ErrorHandler
  4974  0014AE  C009  F0B1         	movff	EUSART1_SetErrorHandler@interruptHandler+1,_EUSART1_ErrorHandler+1
  4975  0014B2  0012               	return		;funcret
  4976  0014B4                     __end_of_EUSART1_SetErrorHandler:
  4977                           	opt callstack 0
  4978                           
  4979 ;; *************** function _SRAM *****************
  4980 ;; Defined at:
  4981 ;;		line 63 in file "main.c"
  4982 ;; Parameters:    Size  Location     Type
  4983 ;;  a               1    wreg     unsigned char 
  4984 ;;  b               1    7[COMRAM] unsigned char 
  4985 ;;  c               1    8[COMRAM] unsigned char 
  4986 ;;  d               1    9[COMRAM] unsigned char 
  4987 ;; Auto vars:     Size  Location     Type
  4988 ;;  a               1   10[COMRAM] unsigned char 
  4989 ;; Return value:  Size  Location     Type
  4990 ;;                  1    wreg      void 
  4991 ;; Registers used:
  4992 ;;		wreg, status,2, status,0
  4993 ;; Tracked objects:
  4994 ;;		On entry : 0/0
  4995 ;;		On exit  : 0/0
  4996 ;;		Unchanged: 0/0
  4997 ;; Data sizes:     COMRAM   BANK0   BANK1   BANK2   BANK3   BANK4   BANK5
  4998 ;;      Params:         3       0       0       0       0       0       0
  4999 ;;      Locals:         1       0       0       0       0       0       0
  5000 ;;      Temps:          0       0       0       0       0       0       0
  5001 ;;      Totals:         4       0       0       0       0       0       0
  5002 ;;Total ram usage:        4 bytes
  5003 ;; Hardware stack levels used:    1
  5004 ;; Hardware stack levels required when called:    3
  5005 ;; This function calls:
  5006 ;;		Nothing
  5007 ;; This function is called by:
  5008 ;;		_main
  5009 ;; This function uses a non-reentrant model
  5010 ;;
  5011                           
  5012                           	psect	text26
  5013  0012FC                     __ptext26:
  5014                           	opt callstack 0
  5015  0012FC                     _SRAM:
  5016                           	opt callstack 27
  5017                           
  5018                           ;incstack = 0
  5019                           ;SRAM@a stored from wreg
  5020  0012FC  6E0B               	movwf	SRAM@a,c
  5021                           
  5022                           ;main.c: 64:     do { LATCbits.LATC5 = 0; } while(0);
  5023  0012FE  9A8B               	bcf	3979,5,c	;volatile
  5024                           
  5025                           ;main.c: 65:     if (a == 1) do { LATBbits.LATB3 = 1; } while(0);
  5026  001300  040B               	decf	SRAM@a,w,c
  5027  001302  A4D8               	btfss	status,2,c
  5028  001304  D002               	goto	l383
  5029  001306  868A               	bsf	3978,3,c	;volatile
  5030  001308  D001               	goto	l2694
  5031  00130A                     l383:
  5032  00130A  968A               	bcf	3978,3,c	;volatile
  5033  00130C                     l2694:
  5034                           
  5035                           ;main.c: 67:     if (b == 1) do { LATBbits.LATB2 = 1; } while(0);
  5036  00130C  0408               	decf	SRAM@b,w,c
  5037  00130E  A4D8               	btfss	status,2,c
  5038  001310  D002               	goto	l389
  5039  001312  848A               	bsf	3978,2,c	;volatile
  5040  001314  D001               	goto	l2696
  5041  001316                     l389:
  5042  001316  948A               	bcf	3978,2,c	;volatile
  5043  001318                     l2696:
  5044                           
  5045                           ;main.c: 69:     if (c == 1) do { LATBbits.LATB1 = 1; } while(0);
  5046  001318  0409               	decf	SRAM@c,w,c
  5047  00131A  A4D8               	btfss	status,2,c
  5048  00131C  D002               	goto	l395
  5049  00131E  828A               	bsf	3978,1,c	;volatile
  5050  001320  D001               	goto	l2698
  5051  001322                     l395:
  5052  001322  928A               	bcf	3978,1,c	;volatile
  5053  001324                     l2698:
  5054                           
  5055                           ;main.c: 71:     if (d == 1) do { LATBbits.LATB0 = 1; } while(0);
  5056  001324  040A               	decf	SRAM@d,w,c
  5057  001326  A4D8               	btfss	status,2,c
  5058  001328  D002               	goto	l401
  5059  00132A  808A               	bsf	3978,0,c	;volatile
  5060  00132C  0012               	return	
  5061  00132E                     l401:
  5062  00132E  908A               	bcf	3978,0,c	;volatile
  5063  001330  0012               	return		;funcret
  5064  001332                     __end_of_SRAM:
  5065                           	opt callstack 0
  5066                           
  5067 ;; *************** function _I2C1_MasterWrite *****************
  5068 ;; Defined at:
  5069 ;;		line 600 in file "mcc_generated_files/i2c1.c"
  5070 ;; Parameters:    Size  Location     Type
  5071 ;;  pdata           2   16[COMRAM] PTR unsigned char 
  5072 ;;		 -> command(1), 
  5073 ;;  length          1   18[COMRAM] unsigned char 
  5074 ;;  address         2   19[COMRAM] unsigned short 
  5075 ;;  pflag           2   21[COMRAM] PTR enum E5734
  5076 ;;		 -> w_status(1), 
  5077 ;; Auto vars:     Size  Location     Type
  5078 ;;		None
  5079 ;; Return value:  Size  Location     Type
  5080 ;;                  1    wreg      void 
  5081 ;; Registers used:
  5082 ;;		wreg, fsr2l, fsr2h, status,2, status,0, cstack
  5083 ;; Tracked objects:
  5084 ;;		On entry : 0/0
  5085 ;;		On exit  : 0/0
  5086 ;;		Unchanged: 0/0
  5087 ;; Data sizes:     COMRAM   BANK0   BANK1   BANK2   BANK3   BANK4   BANK5
  5088 ;;      Params:         7       0       0       0       0       0       0
  5089 ;;      Locals:         0       0       0       0       0       0       0
  5090 ;;      Temps:          0       0       0       0       0       0       0
  5091 ;;      Totals:         7       0       0       0       0       0       0
  5092 ;;Total ram usage:        7 bytes
  5093 ;; Hardware stack levels used:    1
  5094 ;; Hardware stack levels required when called:    5
  5095 ;; This function calls:
  5096 ;;		_I2C1_MasterTRBInsert
  5097 ;;		_I2C1_MasterWriteTRBBuild
  5098 ;; This function is called by:
  5099 ;;		_main
  5100 ;; This function uses a non-reentrant model
  5101 ;;
  5102                           
  5103                           	psect	text27
  5104  001168                     __ptext27:
  5105                           	opt callstack 0
  5106  001168                     _I2C1_MasterWrite:
  5107                           	opt callstack 25
  5108                           
  5109                           ;mcc_generated_files/i2c1.c: 601:                                 uint8_t *pdata,;mcc_ge
      +                          nerated_files/i2c1.c: 602:                                 uint8_t length,;mcc_generated
      +                          _files/i2c1.c: 603:                                 uint16_t address,;mcc_generated_file
      +                          s/i2c1.c: 604:                                 I2C1_MESSAGE_STATUS *pflag);mcc_generated
      +                          _files/i2c1.c: 605: {;mcc_generated_files/i2c1.c: 606:     static I2C1_TRANSACTION_REQUE
      +                          ST_BLOCK trBlock;;mcc_generated_files/i2c1.c: 609:     if (i2c1_object.trStatus.s.full !
      +                          = 1)
  5110                           
  5111                           ;incstack = 0
  5112  001168  0100               	movlb	0	; () banked
  5113  00116A  B164               	btfsc	(_i2c1_object+4)& (0+255),0,b
  5114  00116C  D01C               	goto	l2684
  5115                           
  5116                           ; BSR set to: 0
  5117                           ;mcc_generated_files/i2c1.c: 610:     {;mcc_generated_files/i2c1.c: 611:         I2C1_Ma
      +                          sterWriteTRBBuild(&trBlock, pdata, length, address);
  5118  00116E  0E7D               	movlw	low I2C1_MasterWrite@trBlock
  5119  001170  6E08               	movwf	I2C1_MasterWriteTRBBuild@ptrb,c
  5120  001172  0E00               	movlw	high I2C1_MasterWrite@trBlock
  5121  001174  6E09               	movwf	I2C1_MasterWriteTRBBuild@ptrb+1,c
  5122  001176  C011  F00A         	movff	I2C1_MasterWrite@pdata,I2C1_MasterWriteTRBBuild@pdata
  5123  00117A  C012  F00B         	movff	I2C1_MasterWrite@pdata+1,I2C1_MasterWriteTRBBuild@pdata+1
  5124  00117E  C013  F00C         	movff	I2C1_MasterWrite@length,I2C1_MasterWriteTRBBuild@length
  5125  001182  C014  F00D         	movff	I2C1_MasterWrite@address,I2C1_MasterWriteTRBBuild@address
  5126  001186  C015  F00E         	movff	I2C1_MasterWrite@address+1,I2C1_MasterWriteTRBBuild@address+1
  5127  00118A  EC00  F009         	call	_I2C1_MasterWriteTRBBuild	;wreg free
  5128                           
  5129                           ;mcc_generated_files/i2c1.c: 612:         I2C1_MasterTRBInsert(1, &trBlock, pflag);
  5130  00118E  0E7D               	movlw	low I2C1_MasterWrite@trBlock
  5131  001190  6E08               	movwf	I2C1_MasterTRBInsert@ptrb_list,c
  5132  001192  0E00               	movlw	high I2C1_MasterWrite@trBlock
  5133  001194  6E09               	movwf	I2C1_MasterTRBInsert@ptrb_list+1,c
  5134  001196  C016  F00A         	movff	I2C1_MasterWrite@pflag,I2C1_MasterTRBInsert@pflag
  5135  00119A  C017  F00B         	movff	I2C1_MasterWrite@pflag+1,I2C1_MasterTRBInsert@pflag+1
  5136  00119E  0E01               	movlw	1
  5137  0011A0  EC4D  F007         	call	_I2C1_MasterTRBInsert
  5138                           
  5139                           ;mcc_generated_files/i2c1.c: 613:     }
  5140  0011A4  0012               	return	
  5141  0011A6                     l2684:
  5142                           
  5143                           ; BSR set to: 0
  5144                           ;mcc_generated_files/i2c1.c: 615:     {;mcc_generated_files/i2c1.c: 616:         *pflag 
      +                          = I2C1_MESSAGE_FAIL;
  5145  0011A6  C016  FFD9         	movff	I2C1_MasterWrite@pflag,fsr2l
  5146  0011AA  C017  FFDA         	movff	I2C1_MasterWrite@pflag+1,fsr2h
  5147  0011AE  0E01               	movlw	1
  5148  0011B0  6EDF               	movwf	indf2,c
  5149  0011B2  0012               	return		;funcret
  5150  0011B4                     __end_of_I2C1_MasterWrite:
  5151                           	opt callstack 0
  5152                           
  5153 ;; *************** function _I2C1_MasterWriteTRBBuild *****************
  5154 ;; Defined at:
  5155 ;;		line 721 in file "mcc_generated_files/i2c1.c"
  5156 ;; Parameters:    Size  Location     Type
  5157 ;;  ptrb            2    7[COMRAM] PTR struct .
  5158 ;;		 -> I2C1_MasterWrite@trBlock(5), 
  5159 ;;  pdata           2    9[COMRAM] PTR unsigned char 
  5160 ;;		 -> command(1), 
  5161 ;;  length          1   11[COMRAM] unsigned char 
  5162 ;;  address         2   12[COMRAM] unsigned short 
  5163 ;; Auto vars:     Size  Location     Type
  5164 ;;		None
  5165 ;; Return value:  Size  Location     Type
  5166 ;;                  1    wreg      void 
  5167 ;; Registers used:
  5168 ;;		wreg, fsr2l, fsr2h, status,2, status,0
  5169 ;; Tracked objects:
  5170 ;;		On entry : 0/0
  5171 ;;		On exit  : 0/0
  5172 ;;		Unchanged: 0/0
  5173 ;; Data sizes:     COMRAM   BANK0   BANK1   BANK2   BANK3   BANK4   BANK5
  5174 ;;      Params:         7       0       0       0       0       0       0
  5175 ;;      Locals:         0       0       0       0       0       0       0
  5176 ;;      Temps:          2       0       0       0       0       0       0
  5177 ;;      Totals:         9       0       0       0       0       0       0
  5178 ;;Total ram usage:        9 bytes
  5179 ;; Hardware stack levels used:    1
  5180 ;; Hardware stack levels required when called:    3
  5181 ;; This function calls:
  5182 ;;		Nothing
  5183 ;; This function is called by:
  5184 ;;		_I2C1_MasterWrite
  5185 ;; This function uses a non-reentrant model
  5186 ;;
  5187                           
  5188                           	psect	text28
  5189  001200                     __ptext28:
  5190                           	opt callstack 0
  5191  001200                     _I2C1_MasterWriteTRBBuild:
  5192                           	opt callstack 26
  5193                           
  5194                           ;mcc_generated_files/i2c1.c: 722:                                 I2C1_TRANSACTION_REQUE
      +                          ST_BLOCK *ptrb,;mcc_generated_files/i2c1.c: 723:                                 uint8_t
      +                           *pdata,;mcc_generated_files/i2c1.c: 724:                                 uint8_t length
      +                          ,;mcc_generated_files/i2c1.c: 725:                                 uint16_t address);mcc
      +                          _generated_files/i2c1.c: 726: {;mcc_generated_files/i2c1.c: 727:     ptrb->address = add
      +                          ress << 1;
  5195                           
  5196                           ;incstack = 0
  5197  001200  C00D  F00F         	movff	I2C1_MasterWriteTRBBuild@address,??_I2C1_MasterWriteTRBBuild
  5198  001204  C00E  F010         	movff	I2C1_MasterWriteTRBBuild@address+1,??_I2C1_MasterWriteTRBBuild+1
  5199  001208  90D8               	bcf	status,0,c
  5200  00120A  360F               	rlcf	??_I2C1_MasterWriteTRBBuild,f,c
  5201  00120C  3610               	rlcf	??_I2C1_MasterWriteTRBBuild+1,f,c
  5202  00120E  C008  FFD9         	movff	I2C1_MasterWriteTRBBuild@ptrb,fsr2l
  5203  001212  C009  FFDA         	movff	I2C1_MasterWriteTRBBuild@ptrb+1,fsr2h
  5204  001216  C00F  FFDE         	movff	??_I2C1_MasterWriteTRBBuild,postinc2
  5205  00121A  C010  FFDD         	movff	??_I2C1_MasterWriteTRBBuild+1,postdec2
  5206                           
  5207                           ;mcc_generated_files/i2c1.c: 728:     ptrb->length = length;
  5208  00121E  EE20 F002          	lfsr	2,2
  5209  001222  5008               	movf	I2C1_MasterWriteTRBBuild@ptrb,w,c
  5210  001224  26D9               	addwf	fsr2l,f,c
  5211  001226  5009               	movf	I2C1_MasterWriteTRBBuild@ptrb+1,w,c
  5212  001228  22DA               	addwfc	fsr2h,f,c
  5213  00122A  C00C  FFDF         	movff	I2C1_MasterWriteTRBBuild@length,indf2
  5214                           
  5215                           ;mcc_generated_files/i2c1.c: 729:     ptrb->pbuffer = pdata;
  5216  00122E  EE20 F003          	lfsr	2,3
  5217  001232  5008               	movf	I2C1_MasterWriteTRBBuild@ptrb,w,c
  5218  001234  26D9               	addwf	fsr2l,f,c
  5219  001236  5009               	movf	I2C1_MasterWriteTRBBuild@ptrb+1,w,c
  5220  001238  22DA               	addwfc	fsr2h,f,c
  5221  00123A  C00A  FFDE         	movff	I2C1_MasterWriteTRBBuild@pdata,postinc2
  5222  00123E  C00B  FFDD         	movff	I2C1_MasterWriteTRBBuild@pdata+1,postdec2
  5223  001242  0012               	return		;funcret
  5224  001244                     __end_of_I2C1_MasterWriteTRBBuild:
  5225                           	opt callstack 0
  5226                           
  5227 ;; *************** function _I2C1_MasterRead *****************
  5228 ;; Defined at:
  5229 ;;		line 621 in file "mcc_generated_files/i2c1.c"
  5230 ;; Parameters:    Size  Location     Type
  5231 ;;  pdata           2   16[COMRAM] PTR unsigned char 
  5232 ;;		 -> level(1), 
  5233 ;;  length          1   18[COMRAM] unsigned char 
  5234 ;;  address         2   19[COMRAM] unsigned short 
  5235 ;;  pflag           2   21[COMRAM] PTR enum E5734
  5236 ;;		 -> p_status(1), 
  5237 ;; Auto vars:     Size  Location     Type
  5238 ;;		None
  5239 ;; Return value:  Size  Location     Type
  5240 ;;                  1    wreg      void 
  5241 ;; Registers used:
  5242 ;;		wreg, fsr2l, fsr2h, status,2, status,0, cstack
  5243 ;; Tracked objects:
  5244 ;;		On entry : 0/0
  5245 ;;		On exit  : 0/0
  5246 ;;		Unchanged: 0/0
  5247 ;; Data sizes:     COMRAM   BANK0   BANK1   BANK2   BANK3   BANK4   BANK5
  5248 ;;      Params:         7       0       0       0       0       0       0
  5249 ;;      Locals:         0       0       0       0       0       0       0
  5250 ;;      Temps:          0       0       0       0       0       0       0
  5251 ;;      Totals:         7       0       0       0       0       0       0
  5252 ;;Total ram usage:        7 bytes
  5253 ;; Hardware stack levels used:    1
  5254 ;; Hardware stack levels required when called:    5
  5255 ;; This function calls:
  5256 ;;		_I2C1_MasterReadTRBBuild
  5257 ;;		_I2C1_MasterTRBInsert
  5258 ;; This function is called by:
  5259 ;;		_main
  5260 ;; This function uses a non-reentrant model
  5261 ;;
  5262                           
  5263                           	psect	text29
  5264  0011B4                     __ptext29:
  5265                           	opt callstack 0
  5266  0011B4                     _I2C1_MasterRead:
  5267                           	opt callstack 25
  5268                           
  5269                           ;mcc_generated_files/i2c1.c: 622:                                 uint8_t *pdata,;mcc_ge
      +                          nerated_files/i2c1.c: 623:                                 uint8_t length,;mcc_generated
      +                          _files/i2c1.c: 624:                                 uint16_t address,;mcc_generated_file
      +                          s/i2c1.c: 625:                                 I2C1_MESSAGE_STATUS *pflag);mcc_generated
      +                          _files/i2c1.c: 626: {;mcc_generated_files/i2c1.c: 627:     static I2C1_TRANSACTION_REQUE
      +                          ST_BLOCK trBlock;;mcc_generated_files/i2c1.c: 631:     if (i2c1_object.trStatus.s.full !
      +                          = 1)
  5270                           
  5271                           ;incstack = 0
  5272  0011B4  0100               	movlb	0	; () banked
  5273  0011B6  B164               	btfsc	(_i2c1_object+4)& (0+255),0,b
  5274  0011B8  D01C               	goto	l2690
  5275                           
  5276                           ; BSR set to: 0
  5277                           ;mcc_generated_files/i2c1.c: 632:     {;mcc_generated_files/i2c1.c: 633:         I2C1_Ma
      +                          sterReadTRBBuild(&trBlock, pdata, length, address);
  5278  0011BA  0E78               	movlw	low I2C1_MasterRead@trBlock
  5279  0011BC  6E08               	movwf	I2C1_MasterReadTRBBuild@ptrb,c
  5280  0011BE  0E00               	movlw	high I2C1_MasterRead@trBlock
  5281  0011C0  6E09               	movwf	I2C1_MasterReadTRBBuild@ptrb+1,c
  5282  0011C2  C011  F00A         	movff	I2C1_MasterRead@pdata,I2C1_MasterReadTRBBuild@pdata
  5283  0011C6  C012  F00B         	movff	I2C1_MasterRead@pdata+1,I2C1_MasterReadTRBBuild@pdata+1
  5284  0011CA  C013  F00C         	movff	I2C1_MasterRead@length,I2C1_MasterReadTRBBuild@length
  5285  0011CE  C014  F00D         	movff	I2C1_MasterRead@address,I2C1_MasterReadTRBBuild@address
  5286  0011D2  C015  F00E         	movff	I2C1_MasterRead@address+1,I2C1_MasterReadTRBBuild@address+1
  5287  0011D6  EC8C  F008         	call	_I2C1_MasterReadTRBBuild	;wreg free
  5288                           
  5289                           ;mcc_generated_files/i2c1.c: 634:         I2C1_MasterTRBInsert(1, &trBlock, pflag);
  5290  0011DA  0E78               	movlw	low I2C1_MasterRead@trBlock
  5291  0011DC  6E08               	movwf	I2C1_MasterTRBInsert@ptrb_list,c
  5292  0011DE  0E00               	movlw	high I2C1_MasterRead@trBlock
  5293  0011E0  6E09               	movwf	I2C1_MasterTRBInsert@ptrb_list+1,c
  5294  0011E2  C016  F00A         	movff	I2C1_MasterRead@pflag,I2C1_MasterTRBInsert@pflag
  5295  0011E6  C017  F00B         	movff	I2C1_MasterRead@pflag+1,I2C1_MasterTRBInsert@pflag+1
  5296  0011EA  0E01               	movlw	1
  5297  0011EC  EC4D  F007         	call	_I2C1_MasterTRBInsert
  5298                           
  5299                           ;mcc_generated_files/i2c1.c: 635:     }
  5300  0011F0  0012               	return	
  5301  0011F2                     l2690:
  5302                           
  5303                           ; BSR set to: 0
  5304                           ;mcc_generated_files/i2c1.c: 637:     {;mcc_generated_files/i2c1.c: 638:         *pflag 
      +                          = I2C1_MESSAGE_FAIL;
  5305  0011F2  C016  FFD9         	movff	I2C1_MasterRead@pflag,fsr2l
  5306  0011F6  C017  FFDA         	movff	I2C1_MasterRead@pflag+1,fsr2h
  5307  0011FA  0E01               	movlw	1
  5308  0011FC  6EDF               	movwf	indf2,c
  5309  0011FE  0012               	return		;funcret
  5310  001200                     __end_of_I2C1_MasterRead:
  5311                           	opt callstack 0
  5312                           
  5313 ;; *************** function _I2C1_MasterTRBInsert *****************
  5314 ;; Defined at:
  5315 ;;		line 654 in file "mcc_generated_files/i2c1.c"
  5316 ;; Parameters:    Size  Location     Type
  5317 ;;  count           1    wreg     unsigned char 
  5318 ;;  ptrb_list       2    7[COMRAM] PTR struct .
  5319 ;;		 -> I2C1_MasterRead@trBlock(5), I2C1_MasterWrite@trBlock(5), 
  5320 ;;  pflag           2    9[COMRAM] PTR enum E5734
  5321 ;;		 -> w_status(1), p_status(1), 
  5322 ;; Auto vars:     Size  Location     Type
  5323 ;;  count           1   12[COMRAM] unsigned char 
  5324 ;; Return value:  Size  Location     Type
  5325 ;;                  1    wreg      void 
  5326 ;; Registers used:
  5327 ;;		wreg, fsr2l, fsr2h, status,2, status,0, cstack
  5328 ;; Tracked objects:
  5329 ;;		On entry : 0/0
  5330 ;;		On exit  : 0/0
  5331 ;;		Unchanged: 0/0
  5332 ;; Data sizes:     COMRAM   BANK0   BANK1   BANK2   BANK3   BANK4   BANK5
  5333 ;;      Params:         4       0       0       0       0       0       0
  5334 ;;      Locals:         1       0       0       0       0       0       0
  5335 ;;      Temps:          1       0       0       0       0       0       0
  5336 ;;      Totals:         6       0       0       0       0       0       0
  5337 ;;Total ram usage:        6 bytes
  5338 ;; Hardware stack levels used:    1
  5339 ;; Hardware stack levels required when called:    4
  5340 ;; This function calls:
  5341 ;;		_I2C1_WaitForLastPacketToComplete
  5342 ;; This function is called by:
  5343 ;;		_I2C1_MasterWrite
  5344 ;;		_I2C1_MasterRead
  5345 ;; This function uses a non-reentrant model
  5346 ;;
  5347                           
  5348                           	psect	text30
  5349  000E9A                     __ptext30:
  5350                           	opt callstack 0
  5351  000E9A                     _I2C1_MasterTRBInsert:
  5352                           	opt callstack 25
  5353                           
  5354                           ;incstack = 0
  5355                           ;I2C1_MasterTRBInsert@count stored from wreg
  5356  000E9A  6E0D               	movwf	I2C1_MasterTRBInsert@count,c
  5357                           
  5358                           ;mcc_generated_files/i2c1.c: 655:                                 uint8_t count,;mcc_gen
      +                          erated_files/i2c1.c: 656:                                 I2C1_TRANSACTION_REQUEST_BLOCK
      +                           *ptrb_list,;mcc_generated_files/i2c1.c: 657:                                 I2C1_MESSA
      +                          GE_STATUS *pflag);mcc_generated_files/i2c1.c: 658: {;mcc_generated_files/i2c1.c: 661:   
      +                            if (i2c1_object.trStatus.s.full != 1)
  5359  000E9C  0100               	movlb	0	; () banked
  5360  000E9E  B164               	btfsc	(_i2c1_object+4)& (0+255),0,b
  5361  000EA0  D039               	goto	l2480
  5362                           
  5363                           ; BSR set to: 0
  5364                           ;mcc_generated_files/i2c1.c: 662:     {;mcc_generated_files/i2c1.c: 663:         *pflag 
      +                          = I2C1_MESSAGE_PENDING;
  5365  000EA2  C00A  FFD9         	movff	I2C1_MasterTRBInsert@pflag,fsr2l
  5366  000EA6  C00B  FFDA         	movff	I2C1_MasterTRBInsert@pflag+1,fsr2h
  5367  000EAA  0E02               	movlw	2
  5368  000EAC  6EDF               	movwf	indf2,c
  5369                           
  5370                           ; BSR set to: 0
  5371                           ;mcc_generated_files/i2c1.c: 665:         i2c1_object.pTrTail->ptrb_list = ptrb_list;
  5372  000EAE  EE20 F001          	lfsr	2,1
  5373  000EB2  5160               	movf	_i2c1_object& (0+255),w,b
  5374  000EB4  26D9               	addwf	fsr2l,f,c
  5375  000EB6  5161               	movf	(_i2c1_object+1)& (0+255),w,b
  5376  000EB8  22DA               	addwfc	fsr2h,f,c
  5377  000EBA  C008  FFDE         	movff	I2C1_MasterTRBInsert@ptrb_list,postinc2
  5378  000EBE  C009  FFDD         	movff	I2C1_MasterTRBInsert@ptrb_list+1,postdec2
  5379                           
  5380                           ; BSR set to: 0
  5381                           ;mcc_generated_files/i2c1.c: 666:         i2c1_object.pTrTail->count = count;
  5382  000EC2  C060  FFD9         	movff	_i2c1_object,fsr2l
  5383  000EC6  C061  FFDA         	movff	_i2c1_object+1,fsr2h
  5384  000ECA  C00D  FFDF         	movff	I2C1_MasterTRBInsert@count,indf2
  5385                           
  5386                           ; BSR set to: 0
  5387                           ;mcc_generated_files/i2c1.c: 667:         i2c1_object.pTrTail->pTrFlag = pflag;
  5388  000ECE  EE20 F003          	lfsr	2,3
  5389  000ED2  5160               	movf	_i2c1_object& (0+255),w,b
  5390  000ED4  26D9               	addwf	fsr2l,f,c
  5391  000ED6  5161               	movf	(_i2c1_object+1)& (0+255),w,b
  5392  000ED8  22DA               	addwfc	fsr2h,f,c
  5393  000EDA  C00A  FFDE         	movff	I2C1_MasterTRBInsert@pflag,postinc2
  5394  000EDE  C00B  FFDD         	movff	I2C1_MasterTRBInsert@pflag+1,postdec2
  5395                           
  5396                           ; BSR set to: 0
  5397                           ;mcc_generated_files/i2c1.c: 668:         i2c1_object.pTrTail++;
  5398  000EE2  0E05               	movlw	5
  5399  000EE4  2760               	addwf	_i2c1_object& (0+255),f,b
  5400  000EE6  0E00               	movlw	0
  5401  000EE8  2361               	addwfc	(_i2c1_object+1)& (0+255),f,b
  5402                           
  5403                           ; BSR set to: 0
  5404                           ;mcc_generated_files/i2c1.c: 671:         if (i2c1_object.pTrTail == (i2c1_tr_queue + 1)
      +                          )
  5405  000EEA  0E87               	movlw	low (_i2c1_tr_queue+5)
  5406  000EEC  1960               	xorwf	_i2c1_object& (0+255),w,b
  5407  000EEE  E108               	bnz	l2476
  5408  000EF0  0E00               	movlw	high (_i2c1_tr_queue+5)
  5409  000EF2  1961               	xorwf	(_i2c1_object+1)& (0+255),w,b
  5410  000EF4  A4D8               	btfss	status,2,c
  5411  000EF6  D004               	goto	l2476
  5412                           
  5413                           ; BSR set to: 0
  5414                           ;mcc_generated_files/i2c1.c: 672:         {;mcc_generated_files/i2c1.c: 674:            
      +                           i2c1_object.pTrTail = i2c1_tr_queue;
  5415  000EF8  0E82               	movlw	low _i2c1_tr_queue
  5416  000EFA  6F60               	movwf	_i2c1_object& (0+255),b
  5417  000EFC  0E00               	movlw	high _i2c1_tr_queue
  5418  000EFE  6F61               	movwf	(_i2c1_object+1)& (0+255),b
  5419  000F00                     l2476:
  5420                           
  5421                           ; BSR set to: 0
  5422                           ;mcc_generated_files/i2c1.c: 679:         i2c1_object.trStatus.s.empty = 0;
  5423  000F00  9364               	bcf	(_i2c1_object+4)& (0+255),1,b
  5424                           
  5425                           ;mcc_generated_files/i2c1.c: 682:         if (i2c1_object.pTrHead == i2c1_object.pTrTail
      +                          )
  5426  000F02  5160               	movf	_i2c1_object& (0+255),w,b
  5427  000F04  1962               	xorwf	(_i2c1_object+2)& (0+255),w,b
  5428  000F06  E10C               	bnz	l2482
  5429  000F08  5161               	movf	(_i2c1_object+1)& (0+255),w,b
  5430  000F0A  1963               	xorwf	(_i2c1_object+3)& (0+255),w,b
  5431  000F0C  A4D8               	btfss	status,2,c
  5432  000F0E  D008               	goto	l2482
  5433                           
  5434                           ; BSR set to: 0
  5435                           ;mcc_generated_files/i2c1.c: 683:         {;mcc_generated_files/i2c1.c: 685:            
      +                           i2c1_object.trStatus.s.full = 1;
  5436  000F10  8164               	bsf	(_i2c1_object+4)& (0+255),0,b
  5437  000F12  D006               	goto	l2482
  5438  000F14                     l2480:
  5439                           
  5440                           ; BSR set to: 0
  5441                           ;mcc_generated_files/i2c1.c: 690:     {;mcc_generated_files/i2c1.c: 691:         *pflag 
      +                          = I2C1_MESSAGE_FAIL;
  5442  000F14  C00A  FFD9         	movff	I2C1_MasterTRBInsert@pflag,fsr2l
  5443  000F18  C00B  FFDA         	movff	I2C1_MasterTRBInsert@pflag+1,fsr2h
  5444  000F1C  0E01               	movlw	1
  5445  000F1E  6EDF               	movwf	indf2,c
  5446  000F20                     l2482:
  5447                           
  5448                           ; BSR set to: 0
  5449                           ;mcc_generated_files/i2c1.c: 695:     if (*pflag == I2C1_MESSAGE_PENDING)
  5450  000F20  C00A  FFD9         	movff	I2C1_MasterTRBInsert@pflag,fsr2l
  5451  000F24  C00B  FFDA         	movff	I2C1_MasterTRBInsert@pflag+1,fsr2h
  5452  000F28  0E02               	movlw	2
  5453  000F2A  18DE               	xorwf	postinc2,w,c
  5454  000F2C  A4D8               	btfss	status,2,c
  5455  000F2E  0012               	return	
  5456                           
  5457                           ; BSR set to: 0
  5458                           ;mcc_generated_files/i2c1.c: 696:     {;mcc_generated_files/i2c1.c: 697:         I2C1_Wa
      +                          itForLastPacketToComplete();
  5459  000F30  EC5A  F00A         	call	_I2C1_WaitForLastPacketToComplete	;wreg free
  5460                           
  5461                           ;mcc_generated_files/i2c1.c: 702:         PIR1bits.SSP1IF = 1;
  5462  000F34  869E               	bsf	3998,3,c	;volatile
  5463  000F36  0012               	return		;funcret
  5464  000F38                     __end_of_I2C1_MasterTRBInsert:
  5465                           	opt callstack 0
  5466                           
  5467 ;; *************** function _I2C1_WaitForLastPacketToComplete *****************
  5468 ;; Defined at:
  5469 ;;		line 644 in file "mcc_generated_files/i2c1.c"
  5470 ;; Parameters:    Size  Location     Type
  5471 ;;		None
  5472 ;; Auto vars:     Size  Location     Type
  5473 ;;		None
  5474 ;; Return value:  Size  Location     Type
  5475 ;;                  1    wreg      void 
  5476 ;; Registers used:
  5477 ;;		wreg, status,2
  5478 ;; Tracked objects:
  5479 ;;		On entry : 0/0
  5480 ;;		On exit  : 0/0
  5481 ;;		Unchanged: 0/0
  5482 ;; Data sizes:     COMRAM   BANK0   BANK1   BANK2   BANK3   BANK4   BANK5
  5483 ;;      Params:         0       0       0       0       0       0       0
  5484 ;;      Locals:         0       0       0       0       0       0       0
  5485 ;;      Temps:          0       0       0       0       0       0       0
  5486 ;;      Totals:         0       0       0       0       0       0       0
  5487 ;;Total ram usage:        0 bytes
  5488 ;; Hardware stack levels used:    1
  5489 ;; Hardware stack levels required when called:    3
  5490 ;; This function calls:
  5491 ;;		Nothing
  5492 ;; This function is called by:
  5493 ;;		_I2C1_MasterTRBInsert
  5494 ;; This function uses a non-reentrant model
  5495 ;;
  5496                           
  5497                           	psect	text31
  5498  0014B4                     __ptext31:
  5499                           	opt callstack 0
  5500  0014B4                     _I2C1_WaitForLastPacketToComplete:
  5501                           	opt callstack 25
  5502                           
  5503                           ;mcc_generated_files/i2c1.c: 646:     while(i2c1_state != S_MASTER_IDLE)
  5504                           
  5505                           ;mcc_generated_files/i2c1.c: 646:     while(i2c1_state != S_MASTER_IDLE)
  5506                           
  5507                           ;incstack = 0
  5508  0014B4  5054               	movf	_i2c1_state,w,c
  5509  0014B6  B4D8               	btfsc	status,2,c
  5510  0014B8  0012               	return	
  5511  0014BA  D7FC               	goto	_I2C1_WaitForLastPacketToComplete
  5512  0014BC                     __end_of_I2C1_WaitForLastPacketToComplete:
  5513                           	opt callstack 0
  5514                           
  5515 ;; *************** function _I2C1_MasterReadTRBBuild *****************
  5516 ;; Defined at:
  5517 ;;		line 708 in file "mcc_generated_files/i2c1.c"
  5518 ;; Parameters:    Size  Location     Type
  5519 ;;  ptrb            2    7[COMRAM] PTR struct .
  5520 ;;		 -> I2C1_MasterRead@trBlock(5), 
  5521 ;;  pdata           2    9[COMRAM] PTR unsigned char 
  5522 ;;		 -> level(1), 
  5523 ;;  length          1   11[COMRAM] unsigned char 
  5524 ;;  address         2   12[COMRAM] unsigned short 
  5525 ;; Auto vars:     Size  Location     Type
  5526 ;;		None
  5527 ;; Return value:  Size  Location     Type
  5528 ;;                  1    wreg      void 
  5529 ;; Registers used:
  5530 ;;		wreg, fsr2l, fsr2h, status,2, status,0
  5531 ;; Tracked objects:
  5532 ;;		On entry : 0/0
  5533 ;;		On exit  : 0/0
  5534 ;;		Unchanged: 0/0
  5535 ;; Data sizes:     COMRAM   BANK0   BANK1   BANK2   BANK3   BANK4   BANK5
  5536 ;;      Params:         7       0       0       0       0       0       0
  5537 ;;      Locals:         0       0       0       0       0       0       0
  5538 ;;      Temps:          2       0       0       0       0       0       0
  5539 ;;      Totals:         9       0       0       0       0       0       0
  5540 ;;Total ram usage:        9 bytes
  5541 ;; Hardware stack levels used:    1
  5542 ;; Hardware stack levels required when called:    3
  5543 ;; This function calls:
  5544 ;;		Nothing
  5545 ;; This function is called by:
  5546 ;;		_I2C1_MasterRead
  5547 ;; This function uses a non-reentrant model
  5548 ;;
  5549                           
  5550                           	psect	text32
  5551  001118                     __ptext32:
  5552                           	opt callstack 0
  5553  001118                     _I2C1_MasterReadTRBBuild:
  5554                           	opt callstack 26
  5555                           
  5556                           ;mcc_generated_files/i2c1.c: 709:                                 I2C1_TRANSACTION_REQUE
      +                          ST_BLOCK *ptrb,;mcc_generated_files/i2c1.c: 710:                                 uint8_t
      +                           *pdata,;mcc_generated_files/i2c1.c: 711:                                 uint8_t length
      +                          ,;mcc_generated_files/i2c1.c: 712:                                 uint16_t address);mcc
      +                          _generated_files/i2c1.c: 713: {;mcc_generated_files/i2c1.c: 714:     ptrb->address = add
      +                          ress << 1;
  5557                           
  5558                           ;incstack = 0
  5559  001118  C00D  F00F         	movff	I2C1_MasterReadTRBBuild@address,??_I2C1_MasterReadTRBBuild
  5560  00111C  C00E  F010         	movff	I2C1_MasterReadTRBBuild@address+1,??_I2C1_MasterReadTRBBuild+1
  5561  001120  90D8               	bcf	status,0,c
  5562  001122  360F               	rlcf	??_I2C1_MasterReadTRBBuild,f,c
  5563  001124  3610               	rlcf	??_I2C1_MasterReadTRBBuild+1,f,c
  5564  001126  C008  FFD9         	movff	I2C1_MasterReadTRBBuild@ptrb,fsr2l
  5565  00112A  C009  FFDA         	movff	I2C1_MasterReadTRBBuild@ptrb+1,fsr2h
  5566  00112E  C00F  FFDE         	movff	??_I2C1_MasterReadTRBBuild,postinc2
  5567  001132  C010  FFDD         	movff	??_I2C1_MasterReadTRBBuild+1,postdec2
  5568                           
  5569                           ;mcc_generated_files/i2c1.c: 716:     ptrb->address |= 0x01;
  5570  001136  C008  FFD9         	movff	I2C1_MasterReadTRBBuild@ptrb,fsr2l
  5571  00113A  C009  FFDA         	movff	I2C1_MasterReadTRBBuild@ptrb+1,fsr2h
  5572  00113E  0E00               	movlw	0
  5573  001140  80DB               	bsf	plusw2,0,c
  5574                           
  5575                           ;mcc_generated_files/i2c1.c: 717:     ptrb->length = length;
  5576  001142  EE20 F002          	lfsr	2,2
  5577  001146  5008               	movf	I2C1_MasterReadTRBBuild@ptrb,w,c
  5578  001148  26D9               	addwf	fsr2l,f,c
  5579  00114A  5009               	movf	I2C1_MasterReadTRBBuild@ptrb+1,w,c
  5580  00114C  22DA               	addwfc	fsr2h,f,c
  5581  00114E  C00C  FFDF         	movff	I2C1_MasterReadTRBBuild@length,indf2
  5582                           
  5583                           ;mcc_generated_files/i2c1.c: 718:     ptrb->pbuffer = pdata;
  5584  001152  EE20 F003          	lfsr	2,3
  5585  001156  5008               	movf	I2C1_MasterReadTRBBuild@ptrb,w,c
  5586  001158  26D9               	addwf	fsr2l,f,c
  5587  00115A  5009               	movf	I2C1_MasterReadTRBBuild@ptrb+1,w,c
  5588  00115C  22DA               	addwfc	fsr2h,f,c
  5589  00115E  C00A  FFDE         	movff	I2C1_MasterReadTRBBuild@pdata,postinc2
  5590  001162  C00B  FFDD         	movff	I2C1_MasterReadTRBBuild@pdata+1,postdec2
  5591  001166  0012               	return		;funcret
  5592  001168                     __end_of_I2C1_MasterReadTRBBuild:
  5593                           	opt callstack 0
  5594                           
  5595 ;; *************** function _EUSART1_is_rx_ready *****************
  5596 ;; Defined at:
  5597 ;;		line 98 in file "mcc_generated_files/eusart1.c"
  5598 ;; Parameters:    Size  Location     Type
  5599 ;;		None
  5600 ;; Auto vars:     Size  Location     Type
  5601 ;;		None
  5602 ;; Return value:  Size  Location     Type
  5603 ;;                  1    wreg      _Bool 
  5604 ;; Registers used:
  5605 ;;		wreg
  5606 ;; Tracked objects:
  5607 ;;		On entry : 0/0
  5608 ;;		On exit  : 0/0
  5609 ;;		Unchanged: 0/0
  5610 ;; Data sizes:     COMRAM   BANK0   BANK1   BANK2   BANK3   BANK4   BANK5
  5611 ;;      Params:         0       0       0       0       0       0       0
  5612 ;;      Locals:         0       0       0       0       0       0       0
  5613 ;;      Temps:          0       0       0       0       0       0       0
  5614 ;;      Totals:         0       0       0       0       0       0       0
  5615 ;;Total ram usage:        0 bytes
  5616 ;; Hardware stack levels used:    1
  5617 ;; Hardware stack levels required when called:    3
  5618 ;; This function calls:
  5619 ;;		Nothing
  5620 ;; This function is called by:
  5621 ;;		_main
  5622 ;; This function uses a non-reentrant model
  5623 ;;
  5624                           
  5625                           	psect	text33
  5626  001480                     __ptext33:
  5627                           	opt callstack 0
  5628  001480                     _EUSART1_is_rx_ready:
  5629                           	opt callstack 27
  5630                           
  5631                           ;mcc_generated_files/eusart1.c: 100:     return PIR1bits.RC1IF;
  5632                           
  5633                           ;incstack = 0
  5634  001480  AA9E               	btfss	3998,5,c	;volatile
  5635  001482  D002               	goto	u1610
  5636  001484  0E01               	movlw	1
  5637  001486  0012               	return	
  5638  001488                     u1610:
  5639  001488  0E00               	movlw	0
  5640  00148A  0012               	return		;funcret
  5641  00148C                     __end_of_EUSART1_is_rx_ready:
  5642                           	opt callstack 0
  5643                           
  5644 ;; *************** function _EUSART1_Read *****************
  5645 ;; Defined at:
  5646 ;;		line 112 in file "mcc_generated_files/eusart1.c"
  5647 ;; Parameters:    Size  Location     Type
  5648 ;;		None
  5649 ;; Auto vars:     Size  Location     Type
  5650 ;;		None
  5651 ;; Return value:  Size  Location     Type
  5652 ;;                  1    wreg      unsigned char 
  5653 ;; Registers used:
  5654 ;;		wreg, status,2
  5655 ;; Tracked objects:
  5656 ;;		On entry : 0/0
  5657 ;;		On exit  : 0/0
  5658 ;;		Unchanged: 0/0
  5659 ;; Data sizes:     COMRAM   BANK0   BANK1   BANK2   BANK3   BANK4   BANK5
  5660 ;;      Params:         0       0       0       0       0       0       0
  5661 ;;      Locals:         0       0       0       0       0       0       0
  5662 ;;      Temps:          0       0       0       0       0       0       0
  5663 ;;      Totals:         0       0       0       0       0       0       0
  5664 ;;Total ram usage:        0 bytes
  5665 ;; Hardware stack levels used:    1
  5666 ;; Hardware stack levels required when called:    3
  5667 ;; This function calls:
  5668 ;;		Nothing
  5669 ;; This function is called by:
  5670 ;;		_main
  5671 ;;		_getch
  5672 ;; This function uses a non-reentrant model
  5673 ;;
  5674                           
  5675                           	psect	text34
  5676  001450                     __ptext34:
  5677                           	opt callstack 0
  5678  001450                     _EUSART1_Read:
  5679                           	opt callstack 27
  5680                           
  5681                           ;mcc_generated_files/eusart1.c: 114:     while(!PIR1bits.RC1IF)
  5682                           
  5683                           ;mcc_generated_files/eusart1.c: 115:     {;mcc_generated_files/eusart1.c: 116:     }
  5684                           
  5685                           ;incstack = 0
  5686  001450  AA9E               	btfss	3998,5,c	;volatile
  5687  001452  D7FE               	goto	_EUSART1_Read
  5688                           
  5689                           ;mcc_generated_files/eusart1.c: 118:     eusart1RxLastError.status = 0;
  5690  001454  0E00               	movlw	0
  5691  001456  0100               	movlb	0	; () banked
  5692  001458  6F77               	movwf	_eusart1RxLastError& (0+255),b	;volatile
  5693                           
  5694                           ; BSR set to: 0
  5695                           ;mcc_generated_files/eusart1.c: 120:     if(1 == RCSTA1bits.OERR)
  5696  00145A  A2AB               	btfss	4011,1,c	;volatile
  5697  00145C  D002               	goto	l2528
  5698                           
  5699                           ; BSR set to: 0
  5700                           ;mcc_generated_files/eusart1.c: 121:     {;mcc_generated_files/eusart1.c: 124:         R
      +                          CSTA1bits.CREN = 0;
  5701  00145E  98AB               	bcf	4011,4,c	;volatile
  5702                           
  5703                           ;mcc_generated_files/eusart1.c: 125:         RCSTA1bits.CREN = 1;
  5704  001460  88AB               	bsf	4011,4,c	;volatile
  5705  001462                     l2528:
  5706                           
  5707                           ; BSR set to: 0
  5708                           ;mcc_generated_files/eusart1.c: 128:     return RCREG1;
  5709  001462  50AE               	movf	4014,w,c	;volatile
  5710                           
  5711                           ; BSR set to: 0
  5712  001464  0012               	return		;funcret
  5713  001466                     __end_of_EUSART1_Read:
  5714                           	opt callstack 0
  5715                           
  5716 ;; *************** function _INTERRUPT_InterruptManager *****************
  5717 ;; Defined at:
  5718 ;;		line 58 in file "mcc_generated_files/interrupt_manager.c"
  5719 ;; Parameters:    Size  Location     Type
  5720 ;;		None
  5721 ;; Auto vars:     Size  Location     Type
  5722 ;;		None
  5723 ;; Return value:  Size  Location     Type
  5724 ;;                  1    wreg      void 
  5725 ;; Registers used:
  5726 ;;		wreg, fsr2l, fsr2h, status,2, status,0, cstack
  5727 ;; Tracked objects:
  5728 ;;		On entry : 0/0
  5729 ;;		On exit  : 0/0
  5730 ;;		Unchanged: 0/0
  5731 ;; Data sizes:     COMRAM   BANK0   BANK1   BANK2   BANK3   BANK4   BANK5
  5732 ;;      Params:         0       0       0       0       0       0       0
  5733 ;;      Locals:         0       0       0       0       0       0       0
  5734 ;;      Temps:          2       0       0       0       0       0       0
  5735 ;;      Totals:         2       0       0       0       0       0       0
  5736 ;;Total ram usage:        2 bytes
  5737 ;; Hardware stack levels used:    1
  5738 ;; Hardware stack levels required when called:    2
  5739 ;; This function calls:
  5740 ;;		_I2C1_BusCollisionISR
  5741 ;;		_I2C1_ISR
  5742 ;; This function is called by:
  5743 ;;		Interrupt level 2
  5744 ;; This function uses a non-reentrant model
  5745 ;;
  5746                           
  5747                           	psect	intcode
  5748  000008                     __pintcode:
  5749                           	opt callstack 0
  5750  000008                     _INTERRUPT_InterruptManager:
  5751                           	opt callstack 18
  5752                           
  5753                           ; BSR set to: 0
  5754                           ;incstack = 0
  5755  000008  8257               	bsf	btemp,1,c	;set compiler interrupt flag (level 2)
  5756  00000A  CFD9 F006          	movff	fsr2l,??_INTERRUPT_InterruptManager
  5757  00000E  CFDA F007          	movff	fsr2h,??_INTERRUPT_InterruptManager+1
  5758                           
  5759                           ;mcc_generated_files/interrupt_manager.c: 61:     if(INTCONbits.PEIE == 1)
  5760  000012  ACF2               	btfss	4082,6,c	;volatile
  5761  000014  D00B               	goto	i2l172
  5762                           
  5763                           ;mcc_generated_files/interrupt_manager.c: 62:     {;mcc_generated_files/interrupt_manage
      +                          r.c: 63:         if(PIE2bits.BCL1IE == 1 && PIR2bits.BCL1IF == 1)
  5764  000016  B6A0               	btfsc	4000,3,c	;volatile
  5765  000018  A6A1               	btfss	4001,3,c	;volatile
  5766  00001A  D003               	goto	i2l171
  5767                           
  5768                           ;mcc_generated_files/interrupt_manager.c: 64:         {;mcc_generated_files/interrupt_ma
      +                          nager.c: 65:             I2C1_BusCollisionISR();
  5769  00001C  EC60  F00A         	call	_I2C1_BusCollisionISR	;wreg free
  5770                           
  5771                           ;mcc_generated_files/interrupt_manager.c: 66:         }
  5772  000020  D005               	goto	i2l172
  5773  000022                     i2l171:
  5774  000022  B69D               	btfsc	3997,3,c	;volatile
  5775  000024  A69E               	btfss	3998,3,c	;volatile
  5776  000026  D002               	goto	i2l172
  5777                           
  5778                           ;mcc_generated_files/interrupt_manager.c: 68:         {;mcc_generated_files/interrupt_ma
      +                          nager.c: 69:             I2C1_ISR();
  5779  000028  EC0E  F002         	call	_I2C1_ISR	;wreg free
  5780  00002C                     i2l172:
  5781                           
  5782                           ;mcc_generated_files/interrupt_manager.c: 75:     }
  5783  00002C  C007  FFDA         	movff	??_INTERRUPT_InterruptManager+1,fsr2h
  5784  000030  C006  FFD9         	movff	??_INTERRUPT_InterruptManager,fsr2l
  5785  000034  9257               	bcf	btemp,1,c	;clear compiler interrupt flag (level 2)
  5786  000036  0011               	retfie		f
  5787  000038                     __end_of_INTERRUPT_InterruptManager:
  5788                           	opt callstack 0
  5789                           
  5790 ;; *************** function _I2C1_ISR *****************
  5791 ;; Defined at:
  5792 ;;		line 235 in file "mcc_generated_files/i2c1.c"
  5793 ;; Parameters:    Size  Location     Type
  5794 ;;		None
  5795 ;; Auto vars:     Size  Location     Type
  5796 ;;		None
  5797 ;; Return value:  Size  Location     Type
  5798 ;;                  1    wreg      void 
  5799 ;; Registers used:
  5800 ;;		wreg, fsr2l, fsr2h, status,2, status,0, cstack
  5801 ;; Tracked objects:
  5802 ;;		On entry : 0/0
  5803 ;;		On exit  : 0/0
  5804 ;;		Unchanged: 0/0
  5805 ;; Data sizes:     COMRAM   BANK0   BANK1   BANK2   BANK3   BANK4   BANK5
  5806 ;;      Params:         0       0       0       0       0       0       0
  5807 ;;      Locals:         0       0       0       0       0       0       0
  5808 ;;      Temps:          2       0       0       0       0       0       0
  5809 ;;      Totals:         2       0       0       0       0       0       0
  5810 ;;Total ram usage:        2 bytes
  5811 ;; Hardware stack levels used:    1
  5812 ;; Hardware stack levels required when called:    1
  5813 ;; This function calls:
  5814 ;;		_I2C1_FunctionComplete
  5815 ;;		_I2C1_Stop
  5816 ;; This function is called by:
  5817 ;;		_INTERRUPT_InterruptManager
  5818 ;; This function uses a non-reentrant model
  5819 ;;
  5820                           
  5821                           	psect	text36
  5822  00041C                     __ptext36:
  5823                           	opt callstack 0
  5824  00041C                     _I2C1_ISR:
  5825                           	opt callstack 18
  5826                           
  5827                           ;mcc_generated_files/i2c1.c: 238:     static uint8_t *pi2c_buf_ptr;;mcc_generated_files/
      +                          i2c1.c: 239:     static uint16_t i2c_address = 0;;mcc_generated_files/i2c1.c: 240:     s
      +                          tatic uint8_t i2c_bytes_left = 0;;mcc_generated_files/i2c1.c: 241:     static uint8_t i2
      +                          c_10bit_address_restart = 0;;mcc_generated_files/i2c1.c: 243:     PIR1bits.SSP1IF = 0;
  5828                           
  5829                           ;incstack = 0
  5830  00041C  969E               	bcf	3998,3,c	;volatile
  5831                           
  5832                           ;mcc_generated_files/i2c1.c: 247:     if(SSP1CON1bits.WCOL)
  5833  00041E  AEC6               	btfss	4038,7,c	;volatile
  5834  000420  D0F9               	goto	i2l2674
  5835                           
  5836                           ;mcc_generated_files/i2c1.c: 248:     {;mcc_generated_files/i2c1.c: 250:         SSP1CON
      +                          1bits.WCOL = 0;
  5837  000422  9EC6               	bcf	4038,7,c	;volatile
  5838                           
  5839                           ;mcc_generated_files/i2c1.c: 251:         i2c1_state = S_MASTER_IDLE;
  5840  000424  0E00               	movlw	0
  5841  000426  6E54               	movwf	_i2c1_state,c
  5842                           
  5843                           ;mcc_generated_files/i2c1.c: 252:         *(p_i2c1_current->pTrFlag) = I2C1_MESSAGE_FAIL
      +                          ;
  5844  000428  0100               	movlb	0	; () banked
  5845  00042A  EE20 F003          	lfsr	2,3
  5846  00042E  516F               	movf	_p_i2c1_current& (0+255),w,b
  5847  000430  26D9               	addwf	fsr2l,f,c
  5848  000432  5170               	movf	(_p_i2c1_current+1)& (0+255),w,b
  5849  000434  22DA               	addwfc	fsr2h,f,c
  5850  000436  CFDE F004          	movff	postinc2,??_I2C1_ISR
  5851  00043A  CFDD F005          	movff	postdec2,??_I2C1_ISR+1
  5852  00043E  C004  FFD9         	movff	??_I2C1_ISR,fsr2l
  5853  000442  C005  FFDA         	movff	??_I2C1_ISR+1,fsr2h
  5854  000446  0E01               	movlw	1
  5855  000448  6EDF               	movwf	indf2,c
  5856                           
  5857                           ; BSR set to: 0
  5858                           ;mcc_generated_files/i2c1.c: 255:         p_i2c1_current = ((void*)0);
  5859  00044A  0E00               	movlw	0
  5860  00044C  6F6F               	movwf	_p_i2c1_current& (0+255),b
  5861  00044E  0E00               	movlw	0
  5862  000450  6F70               	movwf	(_p_i2c1_current+1)& (0+255),b
  5863  000452  0012               	return	
  5864  000454                     i2l240:
  5865                           
  5866                           ;mcc_generated_files/i2c1.c: 265:             if(i2c1_object.trStatus.s.empty != 1)
  5867  000454  0100               	movlb	0	; () banked
  5868  000456  B364               	btfsc	(_i2c1_object+4)& (0+255),1,b
  5869  000458  0012               	return	
  5870                           
  5871                           ; BSR set to: 0
  5872                           ;mcc_generated_files/i2c1.c: 266:             {;mcc_generated_files/i2c1.c: 268:        
      +                                   p_i2c1_current = i2c1_object.pTrHead;
  5873  00045A  C062  F06F         	movff	_i2c1_object+2,_p_i2c1_current
  5874  00045E  C063  F070         	movff	_i2c1_object+3,_p_i2c1_current+1
  5875                           
  5876                           ; BSR set to: 0
  5877                           ;mcc_generated_files/i2c1.c: 269:                 i2c1_trb_count = i2c1_object.pTrHead->
      +                          count;
  5878  000462  C062  FFD9         	movff	_i2c1_object+2,fsr2l
  5879  000466  C063  FFDA         	movff	_i2c1_object+3,fsr2h
  5880  00046A  50DF               	movf	indf2,w,c
  5881  00046C  6E53               	movwf	_i2c1_trb_count,c
  5882                           
  5883                           ; BSR set to: 0
  5884                           ;mcc_generated_files/i2c1.c: 270:                 p_i2c1_trb_current = i2c1_object.pTrHe
      +                          ad->ptrb_list;
  5885  00046E  EE20 F001          	lfsr	2,1
  5886  000472  5162               	movf	(_i2c1_object+2)& (0+255),w,b
  5887  000474  26D9               	addwf	fsr2l,f,c
  5888  000476  5163               	movf	(_i2c1_object+3)& (0+255),w,b
  5889  000478  22DA               	addwfc	fsr2h,f,c
  5890  00047A  CFDE F071          	movff	postinc2,_p_i2c1_trb_current
  5891  00047E  CFDD F072          	movff	postdec2,_p_i2c1_trb_current+1
  5892                           
  5893                           ; BSR set to: 0
  5894                           ;mcc_generated_files/i2c1.c: 272:                 i2c1_object.pTrHead++;
  5895  000482  0E05               	movlw	5
  5896  000484  2762               	addwf	(_i2c1_object+2)& (0+255),f,b
  5897  000486  0E00               	movlw	0
  5898  000488  2363               	addwfc	(_i2c1_object+3)& (0+255),f,b
  5899                           
  5900                           ; BSR set to: 0
  5901                           ;mcc_generated_files/i2c1.c: 275:                 if(i2c1_object.pTrHead == (i2c1_tr_que
      +                          ue + 1))
  5902  00048A  0E87               	movlw	low (_i2c1_tr_queue+5)
  5903  00048C  1962               	xorwf	(_i2c1_object+2)& (0+255),w,b
  5904  00048E  E108               	bnz	i2l2566
  5905  000490  0E00               	movlw	high (_i2c1_tr_queue+5)
  5906  000492  1963               	xorwf	(_i2c1_object+3)& (0+255),w,b
  5907  000494  A4D8               	btfss	status,2,c
  5908  000496  D004               	goto	i2l2566
  5909                           
  5910                           ; BSR set to: 0
  5911                           ;mcc_generated_files/i2c1.c: 276:                 {;mcc_generated_files/i2c1.c: 278:    
      +                                           i2c1_object.pTrHead = i2c1_tr_queue;
  5912  000498  0E82               	movlw	low _i2c1_tr_queue
  5913  00049A  6F62               	movwf	(_i2c1_object+2)& (0+255),b
  5914  00049C  0E00               	movlw	high _i2c1_tr_queue
  5915  00049E  6F63               	movwf	(_i2c1_object+3)& (0+255),b
  5916  0004A0                     i2l2566:
  5917                           
  5918                           ; BSR set to: 0
  5919                           ;mcc_generated_files/i2c1.c: 283:                 i2c1_object.trStatus.s.full = 0;
  5920  0004A0  9164               	bcf	(_i2c1_object+4)& (0+255),0,b
  5921                           
  5922                           ;mcc_generated_files/i2c1.c: 286:                 if(i2c1_object.pTrHead == i2c1_object.
      +                          pTrTail)
  5923  0004A2  5160               	movf	_i2c1_object& (0+255),w,b
  5924  0004A4  1962               	xorwf	(_i2c1_object+2)& (0+255),w,b
  5925  0004A6  E104               	bnz	i2l243
  5926  0004A8  5161               	movf	(_i2c1_object+1)& (0+255),w,b
  5927  0004AA  1963               	xorwf	(_i2c1_object+3)& (0+255),w,b
  5928  0004AC  B4D8               	btfsc	status,2,c
  5929                           
  5930                           ; BSR set to: 0
  5931                           ;mcc_generated_files/i2c1.c: 287:                 {;mcc_generated_files/i2c1.c: 289:    
      +                                           i2c1_object.trStatus.s.empty = 1;
  5932  0004AE  8364               	bsf	(_i2c1_object+4)& (0+255),1,b
  5933  0004B0                     i2l243:
  5934                           
  5935                           ; BSR set to: 0
  5936                           ;mcc_generated_files/i2c1.c: 293:                 SSP1CON2bits.SEN = 1;
  5937  0004B0  80C5               	bsf	4037,0,c	;volatile
  5938  0004B2                     i2l2570:
  5939                           
  5940                           ;mcc_generated_files/i2c1.c: 296:                 i2c1_state = S_MASTER_SEND_ADDR;
  5941  0004B2  0E02               	movlw	2
  5942  0004B4  6E54               	movwf	_i2c1_state,c
  5943  0004B6  0012               	return	
  5944  0004B8                     i2l246:
  5945                           
  5946                           ;mcc_generated_files/i2c1.c: 315:             if(SSP1CON2bits.ACKSTAT)
  5947  0004B8  ACC5               	btfss	4037,6,c	;volatile
  5948  0004BA  D006               	goto	i2l2578
  5949                           
  5950                           ;mcc_generated_files/i2c1.c: 316:             {;mcc_generated_files/i2c1.c: 317:        
      +                                   i2c1_object.i2cErrors++;
  5951  0004BC  0100               	movlb	0	; () banked
  5952  0004BE  2B66               	incf	(_i2c1_object+6)& (0+255),f,b
  5953                           
  5954                           ; BSR set to: 0
  5955                           ;mcc_generated_files/i2c1.c: 318:                 I2C1_Stop(I2C1_MESSAGE_ADDRESS_NO_ACK)
      +                          ;
  5956  0004C0  0E04               	movlw	4
  5957  0004C2  EC42  F009         	call	_I2C1_Stop
  5958                           
  5959                           ;mcc_generated_files/i2c1.c: 319:             }
  5960  0004C6  0012               	return	
  5961  0004C8                     i2l2578:
  5962                           
  5963                           ;mcc_generated_files/i2c1.c: 321:             {;mcc_generated_files/i2c1.c: 323:        
      +                                   SSP1BUF = (i2c_address >> 1) & 0x00FF;
  5964  0004C8  90D8               	bcf	status,0,c
  5965  0004CA  3056               	rrcf	I2C1_ISR@i2c_address+1,w,c
  5966  0004CC  6E05               	movwf	(??_I2C1_ISR+1)& (0+255),c
  5967  0004CE  3055               	rrcf	I2C1_ISR@i2c_address,w,c
  5968  0004D0  6E04               	movwf	??_I2C1_ISR& (0+255),c
  5969  0004D2  5004               	movf	??_I2C1_ISR,w,c
  5970  0004D4  6EC9               	movwf	4041,c	;volatile
  5971                           
  5972                           ;mcc_generated_files/i2c1.c: 326:                 if(i2c_address & 0x01)
  5973  0004D6  A055               	btfss	I2C1_ISR@i2c_address,0,c
  5974  0004D8  D003               	goto	i2l2584
  5975                           
  5976                           ;mcc_generated_files/i2c1.c: 327:                 {;mcc_generated_files/i2c1.c: 330:    
      +                                           i2c1_state = S_MASTER_10BIT_RESTART;
  5977  0004DA  0E0B               	movlw	11
  5978  0004DC  6E54               	movwf	_i2c1_state,c
  5979                           
  5980                           ;mcc_generated_files/i2c1.c: 331:                 }
  5981  0004DE  0012               	return	
  5982  0004E0                     i2l2584:
  5983                           
  5984                           ;mcc_generated_files/i2c1.c: 333:                 {;mcc_generated_files/i2c1.c: 335:    
      +                                           i2c1_state = S_MASTER_SEND_DATA;
  5985  0004E0  0E03               	movlw	3
  5986  0004E2  6E54               	movwf	_i2c1_state,c
  5987  0004E4  0012               	return	
  5988  0004E6                     i2l251:
  5989                           
  5990                           ;mcc_generated_files/i2c1.c: 343:             if(SSP1CON2bits.ACKSTAT)
  5991  0004E6  ACC5               	btfss	4037,6,c	;volatile
  5992  0004E8  D006               	goto	i2l252
  5993                           
  5994                           ;mcc_generated_files/i2c1.c: 344:             {;mcc_generated_files/i2c1.c: 345:        
      +                                   i2c1_object.i2cErrors++;
  5995  0004EA  0100               	movlb	0	; () banked
  5996  0004EC  2B66               	incf	(_i2c1_object+6)& (0+255),f,b
  5997                           
  5998                           ; BSR set to: 0
  5999                           ;mcc_generated_files/i2c1.c: 346:                 I2C1_Stop(I2C1_MESSAGE_ADDRESS_NO_ACK)
      +                          ;
  6000  0004EE  0E04               	movlw	4
  6001  0004F0  EC42  F009         	call	_I2C1_Stop
  6002                           
  6003                           ;mcc_generated_files/i2c1.c: 347:             }
  6004  0004F4  0012               	return	
  6005  0004F6                     i2l252:
  6006                           
  6007                           ;mcc_generated_files/i2c1.c: 349:             {;mcc_generated_files/i2c1.c: 352:        
      +                                   SSP1CON2bits.RSEN = 1;
  6008  0004F6  82C5               	bsf	4037,1,c	;volatile
  6009                           
  6010                           ;mcc_generated_files/i2c1.c: 356:                 i2c_address = 0x00F0 | ((i2c_address >
      +                          > 8) & 0x0006);
  6011  0004F8  C055  F004         	movff	I2C1_ISR@i2c_address,??_I2C1_ISR
  6012  0004FC  C056  F005         	movff	I2C1_ISR@i2c_address+1,??_I2C1_ISR+1
  6013  000500  C005  F004         	movff	??_I2C1_ISR+1,??_I2C1_ISR
  6014  000504  6A05               	clrf	??_I2C1_ISR+1,c
  6015  000506  0E06               	movlw	6
  6016  000508  1604               	andwf	??_I2C1_ISR,f,c
  6017  00050A  0E00               	movlw	0
  6018  00050C  1605               	andwf	??_I2C1_ISR+1,f,c
  6019  00050E  0EF0               	movlw	240
  6020  000510  1004               	iorwf	??_I2C1_ISR,w,c
  6021  000512  6E55               	movwf	I2C1_ISR@i2c_address,c
  6022  000514  5005               	movf	??_I2C1_ISR+1,w,c
  6023  000516  6E56               	movwf	I2C1_ISR@i2c_address+1,c
  6024                           
  6025                           ;mcc_generated_files/i2c1.c: 359:                 i2c_address |= 0x0001;
  6026  000518  8055               	bsf	I2C1_ISR@i2c_address,0,c
  6027                           
  6028                           ;mcc_generated_files/i2c1.c: 362:                 i2c_10bit_address_restart = 1;
  6029  00051A  0E01               	movlw	1
  6030  00051C  6E51               	movwf	I2C1_ISR@i2c_10bit_address_restart,c
  6031  00051E  D7C9               	goto	i2l2570
  6032  000520                     i2l2598:
  6033                           
  6034                           ;mcc_generated_files/i2c1.c: 383:             if(i2c_10bit_address_restart != 1)
  6035  000520  0451               	decf	I2C1_ISR@i2c_10bit_address_restart,w,c
  6036  000522  B4D8               	btfsc	status,2,c
  6037  000524  D01B               	goto	i2l256
  6038                           
  6039                           ;mcc_generated_files/i2c1.c: 384:             {;mcc_generated_files/i2c1.c: 386:        
      +                                   i2c_address = p_i2c1_trb_current->address;
  6040  000526  C071  FFD9         	movff	_p_i2c1_trb_current,fsr2l
  6041  00052A  C072  FFDA         	movff	_p_i2c1_trb_current+1,fsr2h
  6042  00052E  CFDE F055          	movff	postinc2,I2C1_ISR@i2c_address
  6043  000532  CFDD F056          	movff	postdec2,I2C1_ISR@i2c_address+1
  6044                           
  6045                           ;mcc_generated_files/i2c1.c: 387:                 pi2c_buf_ptr = p_i2c1_trb_current->pbu
      +                          ffer;
  6046  000536  0100               	movlb	0	; () banked
  6047  000538  EE20 F003          	lfsr	2,3
  6048  00053C  5171               	movf	_p_i2c1_trb_current& (0+255),w,b
  6049  00053E  26D9               	addwf	fsr2l,f,c
  6050  000540  5172               	movf	(_p_i2c1_trb_current+1)& (0+255),w,b
  6051  000542  22DA               	addwfc	fsr2h,f,c
  6052  000544  CFDE F06D          	movff	postinc2,I2C1_ISR@pi2c_buf_ptr
  6053  000548  CFDD F06E          	movff	postdec2,I2C1_ISR@pi2c_buf_ptr+1
  6054                           
  6055                           ; BSR set to: 0
  6056                           ;mcc_generated_files/i2c1.c: 388:                 i2c_bytes_left = p_i2c1_trb_current->l
      +                          ength;
  6057  00054C  EE20 F002          	lfsr	2,2
  6058  000550  5171               	movf	_p_i2c1_trb_current& (0+255),w,b
  6059  000552  26D9               	addwf	fsr2l,f,c
  6060  000554  5172               	movf	(_p_i2c1_trb_current+1)& (0+255),w,b
  6061  000556  22DA               	addwfc	fsr2h,f,c
  6062  000558  50DF               	movf	indf2,w,c
  6063  00055A  6E52               	movwf	I2C1_ISR@i2c_bytes_left,c
  6064  00055C                     i2l256:
  6065                           
  6066                           ;mcc_generated_files/i2c1.c: 412:             {;mcc_generated_files/i2c1.c: 414:        
      +                                   SSP1BUF = i2c_address;
  6067  00055C  C055  FFC9         	movff	I2C1_ISR@i2c_address,4041	;volatile
  6068                           
  6069                           ;mcc_generated_files/i2c1.c: 415:                 if(i2c_address & 0x01)
  6070  000560  A055               	btfss	I2C1_ISR@i2c_address,0,c
  6071  000562  D7BE               	goto	i2l2584
  6072                           
  6073                           ;mcc_generated_files/i2c1.c: 416:                 {;mcc_generated_files/i2c1.c: 418:    
      +                                           i2c1_state = S_MASTER_ACK_ADDR;
  6074  000564  0E05               	movlw	5
  6075  000566  6E54               	movwf	_i2c1_state,c
  6076                           
  6077                           ;mcc_generated_files/i2c1.c: 419:                 }
  6078  000568  0012               	return	
  6079  00056A                     i2l262:
  6080                           
  6081                           ;mcc_generated_files/i2c1.c: 431:             if(SSP1CON2bits.ACKSTAT)
  6082  00056A  ACC5               	btfss	4037,6,c	;volatile
  6083  00056C  D007               	goto	i2l2626
  6084                           
  6085                           ;mcc_generated_files/i2c1.c: 432:             {;mcc_generated_files/i2c1.c: 434:        
      +                                   i2c1_object.i2cErrors++;
  6086  00056E  0100               	movlb	0	; () banked
  6087  000570  2B66               	incf	(_i2c1_object+6)& (0+255),f,b
  6088                           
  6089                           ; BSR set to: 0
  6090                           ;mcc_generated_files/i2c1.c: 437:                 SSP1CON2bits.ACKSTAT = 0;
  6091  000572  9CC5               	bcf	4037,6,c	;volatile
  6092                           
  6093                           ; BSR set to: 0
  6094                           ;mcc_generated_files/i2c1.c: 440:                 I2C1_Stop(I2C1_DATA_NO_ACK);
  6095  000574  0E05               	movlw	5
  6096  000576  EC42  F009         	call	_I2C1_Stop
  6097                           
  6098                           ;mcc_generated_files/i2c1.c: 442:             }
  6099  00057A  0012               	return	
  6100  00057C                     i2l2626:
  6101                           
  6102                           ;mcc_generated_files/i2c1.c: 444:             {;mcc_generated_files/i2c1.c: 446:        
      +                                   if(i2c_bytes_left-- == 0U)
  6103  00057C  0652               	decf	I2C1_ISR@i2c_bytes_left,f,c
  6104  00057E  2852               	incf	I2C1_ISR@i2c_bytes_left,w,c
  6105  000580  A4D8               	btfss	status,2,c
  6106  000582  D00D               	goto	i2l2636
  6107                           
  6108                           ;mcc_generated_files/i2c1.c: 447:                 {;mcc_generated_files/i2c1.c: 451:    
      +                                           p_i2c1_trb_current++;
  6109  000584  0E05               	movlw	5
  6110  000586  0100               	movlb	0	; () banked
  6111  000588  2771               	addwf	_p_i2c1_trb_current& (0+255),f,b
  6112  00058A  0E00               	movlw	0
  6113  00058C  2372               	addwfc	(_p_i2c1_trb_current+1)& (0+255),f,b
  6114                           
  6115                           ; BSR set to: 0
  6116                           ;mcc_generated_files/i2c1.c: 454:                     if(--i2c1_trb_count == 0)
  6117  00058E  2E53               	decfsz	_i2c1_trb_count,f,c
  6118  000590  D004               	goto	i2l266
  6119                           
  6120                           ; BSR set to: 0
  6121                           ;mcc_generated_files/i2c1.c: 455:                     {;mcc_generated_files/i2c1.c: 456:
      +                                                   I2C1_Stop(I2C1_MESSAGE_COMPLETE);
  6122  000592  0E00               	movlw	0
  6123  000594  EC42  F009         	call	_I2C1_Stop
  6124                           
  6125                           ;mcc_generated_files/i2c1.c: 457:                     }
  6126  000598  0012               	return	
  6127  00059A                     i2l266:
  6128                           
  6129                           ; BSR set to: 0
  6130                           ;mcc_generated_files/i2c1.c: 459:                     {;mcc_generated_files/i2c1.c: 466:
      +                                                   SSP1CON2bits.RSEN = 1;
  6131  00059A  82C5               	bsf	4037,1,c	;volatile
  6132  00059C  D78A               	goto	i2l2570
  6133  00059E                     i2l2636:
  6134                           
  6135                           ;mcc_generated_files/i2c1.c: 474:                 {;mcc_generated_files/i2c1.c: 476:    
      +                                           SSP1BUF = *pi2c_buf_ptr++;
  6136  00059E  C06D  FFD9         	movff	I2C1_ISR@pi2c_buf_ptr,fsr2l
  6137  0005A2  C06E  FFDA         	movff	I2C1_ISR@pi2c_buf_ptr+1,fsr2h
  6138  0005A6  50DF               	movf	indf2,w,c
  6139  0005A8  6EC9               	movwf	4041,c	;volatile
  6140  0005AA  0100               	movlb	0	; () banked
  6141  0005AC  4B6D               	infsnz	I2C1_ISR@pi2c_buf_ptr& (0+255),f,b
  6142  0005AE  2B6E               	incf	(I2C1_ISR@pi2c_buf_ptr+1)& (0+255),f,b
  6143  0005B0  0012               	return	
  6144  0005B2                     i2l269:
  6145                           
  6146                           ;mcc_generated_files/i2c1.c: 484:             if(SSP1CON2bits.ACKSTAT)
  6147  0005B2  ACC5               	btfss	4037,6,c	;volatile
  6148  0005B4  D007               	goto	i2l270
  6149                           
  6150                           ;mcc_generated_files/i2c1.c: 485:             {;mcc_generated_files/i2c1.c: 488:        
      +                                   i2c1_object.i2cErrors++;
  6151  0005B6  0100               	movlb	0	; () banked
  6152  0005B8  2B66               	incf	(_i2c1_object+6)& (0+255),f,b
  6153                           
  6154                           ; BSR set to: 0
  6155                           ;mcc_generated_files/i2c1.c: 491:                 I2C1_Stop(I2C1_MESSAGE_ADDRESS_NO_ACK)
      +                          ;
  6156  0005BA  0E04               	movlw	4
  6157  0005BC  EC42  F009         	call	_I2C1_Stop
  6158                           
  6159                           ;mcc_generated_files/i2c1.c: 494:                 SSP1CON2bits.ACKSTAT = 0;
  6160  0005C0  9CC5               	bcf	4037,6,c	;volatile
  6161                           
  6162                           ;mcc_generated_files/i2c1.c: 495:             }
  6163  0005C2  0012               	return	
  6164  0005C4                     i2l270:
  6165                           
  6166                           ;mcc_generated_files/i2c1.c: 497:             {;mcc_generated_files/i2c1.c: 498:        
      +                                   SSP1CON2bits.RCEN = 1;
  6167  0005C4  86C5               	bsf	4037,3,c	;volatile
  6168                           
  6169                           ;mcc_generated_files/i2c1.c: 499:                 i2c1_state = S_MASTER_ACK_RCV_DATA;
  6170  0005C6  0E08               	movlw	8
  6171  0005C8  6E54               	movwf	_i2c1_state,c
  6172  0005CA  0012               	return	
  6173  0005CC                     i2l2648:
  6174                           
  6175                           ;mcc_generated_files/i2c1.c: 508:             i2c1_state = S_MASTER_ACK_RCV_DATA;
  6176  0005CC  0E08               	movlw	8
  6177  0005CE  6E54               	movwf	_i2c1_state,c
  6178                           
  6179                           ;mcc_generated_files/i2c1.c: 511:             SSP1CON2bits.RCEN = 1;
  6180  0005D0  86C5               	bsf	4037,3,c	;volatile
  6181                           
  6182                           ;mcc_generated_files/i2c1.c: 513:             break;
  6183  0005D2  0012               	return	
  6184  0005D4                     i2l2652:
  6185                           
  6186                           ;mcc_generated_files/i2c1.c: 518:             *pi2c_buf_ptr++ = SSP1BUF;
  6187  0005D4  C06D  FFD9         	movff	I2C1_ISR@pi2c_buf_ptr,fsr2l
  6188  0005D8  C06E  FFDA         	movff	I2C1_ISR@pi2c_buf_ptr+1,fsr2h
  6189  0005DC  CFC9 FFDF          	movff	4041,indf2	;volatile
  6190  0005E0  0100               	movlb	0	; () banked
  6191  0005E2  4B6D               	infsnz	I2C1_ISR@pi2c_buf_ptr& (0+255),f,b
  6192  0005E4  2B6E               	incf	(I2C1_ISR@pi2c_buf_ptr+1)& (0+255),f,b
  6193                           
  6194                           ; BSR set to: 0
  6195                           ;mcc_generated_files/i2c1.c: 521:             if(--i2c_bytes_left)
  6196  0005E6  0E01               	movlw	1
  6197  0005E8  5E52               	subwf	I2C1_ISR@i2c_bytes_left,f,c
  6198  0005EA  B4D8               	btfsc	status,2,c
  6199  0005EC  D004               	goto	i2l274
  6200                           
  6201                           ; BSR set to: 0
  6202                           ;mcc_generated_files/i2c1.c: 522:             {;mcc_generated_files/i2c1.c: 528:        
      +                                   SSP1CON2bits.ACKDT = 0;
  6203  0005EE  9AC5               	bcf	4037,5,c	;volatile
  6204                           
  6205                           ; BSR set to: 0
  6206                           ;mcc_generated_files/i2c1.c: 531:                 i2c1_state = S_MASTER_RCV_DATA;
  6207  0005F0  0E06               	movlw	6
  6208  0005F2  6E54               	movwf	_i2c1_state,c
  6209                           
  6210                           ;mcc_generated_files/i2c1.c: 532:             }
  6211  0005F4  D003               	goto	i2l2664
  6212  0005F6                     i2l274:
  6213                           
  6214                           ; BSR set to: 0
  6215                           ;mcc_generated_files/i2c1.c: 534:             {;mcc_generated_files/i2c1.c: 538:        
      +                                   SSP1CON2bits.ACKDT = 1;
  6216  0005F6  8AC5               	bsf	4037,5,c	;volatile
  6217                           
  6218                           ; BSR set to: 0
  6219                           ;mcc_generated_files/i2c1.c: 540:                 I2C1_FunctionComplete();
  6220  0005F8  EC10  F00A         	call	_I2C1_FunctionComplete	;wreg free
  6221  0005FC                     i2l2664:
  6222                           
  6223                           ;mcc_generated_files/i2c1.c: 544:             SSP1CON2bits.ACKEN = 1;
  6224  0005FC  88C5               	bsf	4037,4,c	;volatile
  6225                           
  6226                           ;mcc_generated_files/i2c1.c: 545:             break;
  6227  0005FE  0012               	return	
  6228  000600                     i2l2666:
  6229                           
  6230                           ;mcc_generated_files/i2c1.c: 551:             I2C1_Stop(I2C1_MESSAGE_COMPLETE);
  6231  000600  0E00               	movlw	0
  6232  000602  EC42  F009         	call	_I2C1_Stop
  6233                           
  6234                           ;mcc_generated_files/i2c1.c: 552:             break;
  6235  000606  0012               	return	
  6236  000608                     i2l2668:
  6237                           
  6238                           ;mcc_generated_files/i2c1.c: 558:             i2c1_object.i2cErrors++;
  6239  000608  0100               	movlb	0	; () banked
  6240  00060A  2B66               	incf	(_i2c1_object+6)& (0+255),f,b
  6241                           
  6242                           ; BSR set to: 0
  6243                           ;mcc_generated_files/i2c1.c: 559:             I2C1_Stop(I2C1_LOST_STATE);
  6244  00060C  0E06               	movlw	6
  6245  00060E  EC42  F009         	call	_I2C1_Stop
  6246                           
  6247                           ;mcc_generated_files/i2c1.c: 560:             break;
  6248  000612  0012               	return	
  6249  000614                     i2l2674:
  6250  000614  5054               	movf	_i2c1_state,w,c
  6251  000616  6E04               	movwf	??_I2C1_ISR& (0+255),c
  6252  000618  6A05               	clrf	(??_I2C1_ISR+1)& (0+255),c
  6253                           
  6254                           ; Switch on 2 bytes has been partitioned into a top level switch of size 1, and 1 sub-sw
      +                          itches
  6255                           ; Switch size 1, requested type "simple"
  6256                           ; Number of cases is 1, Range of values is 0 to 0
  6257                           ; switch strategies available:
  6258                           ; Name         Instructions Cycles
  6259                           ; simple_byte            4     3 (average)
  6260                           ;	Chosen strategy is simple_byte
  6261  00061A  5005               	movf	??_I2C1_ISR+1,w,c
  6262  00061C  0A00               	xorlw	0	; case 0
  6263  00061E  A4D8               	btfss	status,2,c
  6264  000620  D7F3               	goto	i2l2668
  6265                           
  6266                           ; Switch size 1, requested type "simple"
  6267                           ; Number of cases is 11, Range of values is 0 to 11
  6268                           ; switch strategies available:
  6269                           ; Name         Instructions Cycles
  6270                           ; simple_byte           34    18 (average)
  6271                           ;	Chosen strategy is simple_byte
  6272  000622  5004               	movf	??_I2C1_ISR,w,c
  6273  000624  0A00               	xorlw	0	; case 0
  6274  000626  B4D8               	btfsc	status,2,c
  6275  000628  D715               	goto	i2l240
  6276  00062A  0A01               	xorlw	1	; case 1
  6277  00062C  B4D8               	btfsc	status,2,c
  6278  00062E  D7B5               	goto	i2l266
  6279  000630  0A03               	xorlw	3	; case 2
  6280  000632  B4D8               	btfsc	status,2,c
  6281  000634  D775               	goto	i2l2598
  6282  000636  0A01               	xorlw	1	; case 3
  6283  000638  B4D8               	btfsc	status,2,c
  6284  00063A  D797               	goto	i2l262
  6285  00063C  0A07               	xorlw	7	; case 4
  6286  00063E  B4D8               	btfsc	status,2,c
  6287  000640  D7DF               	goto	i2l2666
  6288  000642  0A01               	xorlw	1	; case 5
  6289  000644  B4D8               	btfsc	status,2,c
  6290  000646  D7B5               	goto	i2l269
  6291  000648  0A03               	xorlw	3	; case 6
  6292  00064A  B4D8               	btfsc	status,2,c
  6293  00064C  D7BF               	goto	i2l2648
  6294  00064E  0A01               	xorlw	1	; case 7
  6295  000650  B4D8               	btfsc	status,2,c
  6296  000652  D7D6               	goto	i2l2666
  6297  000654  0A0F               	xorlw	15	; case 8
  6298  000656  B4D8               	btfsc	status,2,c
  6299  000658  D7BD               	goto	i2l2652
  6300  00065A  0A02               	xorlw	2	; case 10
  6301  00065C  B4D8               	btfsc	status,2,c
  6302  00065E  D72C               	goto	i2l246
  6303  000660  0A01               	xorlw	1	; case 11
  6304  000662  B4D8               	btfsc	status,2,c
  6305  000664  D740               	goto	i2l251
  6306  000666  D7D0               	goto	i2l2668
  6307  000668                     __end_of_I2C1_ISR:
  6308                           	opt callstack 0
  6309                           
  6310 ;; *************** function _I2C1_Stop *****************
  6311 ;; Defined at:
  6312 ;;		line 583 in file "mcc_generated_files/i2c1.c"
  6313 ;; Parameters:    Size  Location     Type
  6314 ;;  completion_c    1    wreg     enum E5734
  6315 ;; Auto vars:     Size  Location     Type
  6316 ;;  completion_c    1    2[COMRAM] enum E5734
  6317 ;; Return value:  Size  Location     Type
  6318 ;;                  1    wreg      void 
  6319 ;; Registers used:
  6320 ;;		wreg, fsr2l, fsr2h, status,2, status,0
  6321 ;; Tracked objects:
  6322 ;;		On entry : 0/0
  6323 ;;		On exit  : 0/0
  6324 ;;		Unchanged: 0/0
  6325 ;; Data sizes:     COMRAM   BANK0   BANK1   BANK2   BANK3   BANK4   BANK5
  6326 ;;      Params:         0       0       0       0       0       0       0
  6327 ;;      Locals:         1       0       0       0       0       0       0
  6328 ;;      Temps:          2       0       0       0       0       0       0
  6329 ;;      Totals:         3       0       0       0       0       0       0
  6330 ;;Total ram usage:        3 bytes
  6331 ;; Hardware stack levels used:    1
  6332 ;; This function calls:
  6333 ;;		Nothing
  6334 ;; This function is called by:
  6335 ;;		_I2C1_ISR
  6336 ;; This function uses a non-reentrant model
  6337 ;;
  6338                           
  6339                           	psect	text37
  6340  001284                     __ptext37:
  6341                           	opt callstack 0
  6342  001284                     _I2C1_Stop:
  6343                           	opt callstack 18
  6344                           
  6345                           ;incstack = 0
  6346                           ;I2C1_Stop@completion_code stored from wreg
  6347  001284  6E03               	movwf	I2C1_Stop@completion_code,c
  6348                           
  6349                           ;mcc_generated_files/i2c1.c: 583: void I2C1_Stop(I2C1_MESSAGE_STATUS completion_code);mc
      +                          c_generated_files/i2c1.c: 584: {;mcc_generated_files/i2c1.c: 586:     SSP1CON2bits.PEN =
      +                           1;
  6350  001286  84C5               	bsf	4037,2,c	;volatile
  6351                           
  6352                           ;mcc_generated_files/i2c1.c: 589:     if (p_i2c1_current->pTrFlag != ((void*)0))
  6353  001288  0100               	movlb	0	; () banked
  6354  00128A  EE20 F003          	lfsr	2,3
  6355  00128E  516F               	movf	_p_i2c1_current& (0+255),w,b
  6356  001290  26D9               	addwf	fsr2l,f,c
  6357  001292  5170               	movf	(_p_i2c1_current+1)& (0+255),w,b
  6358  001294  22DA               	addwfc	fsr2h,f,c
  6359  001296  50DE               	movf	postinc2,w,c
  6360  001298  10DE               	iorwf	postinc2,w,c
  6361  00129A  B4D8               	btfsc	status,2,c
  6362  00129C  D010               	goto	i2l2444
  6363                           
  6364                           ; BSR set to: 0
  6365                           ;mcc_generated_files/i2c1.c: 590:     {;mcc_generated_files/i2c1.c: 592:         *(p_i2c
      +                          1_current->pTrFlag) = completion_code;
  6366  00129E  EE20 F003          	lfsr	2,3
  6367  0012A2  516F               	movf	_p_i2c1_current& (0+255),w,b
  6368  0012A4  26D9               	addwf	fsr2l,f,c
  6369  0012A6  5170               	movf	(_p_i2c1_current+1)& (0+255),w,b
  6370  0012A8  22DA               	addwfc	fsr2h,f,c
  6371  0012AA  CFDE F001          	movff	postinc2,??_I2C1_Stop
  6372  0012AE  CFDD F002          	movff	postdec2,??_I2C1_Stop+1
  6373  0012B2  C001  FFD9         	movff	??_I2C1_Stop,fsr2l
  6374  0012B6  C002  FFDA         	movff	??_I2C1_Stop+1,fsr2h
  6375  0012BA  C003  FFDF         	movff	I2C1_Stop@completion_code,indf2
  6376  0012BE                     i2l2444:
  6377                           
  6378                           ; BSR set to: 0
  6379                           ;mcc_generated_files/i2c1.c: 596:     i2c1_state = S_MASTER_IDLE;
  6380  0012BE  0E00               	movlw	0
  6381  0012C0  6E54               	movwf	_i2c1_state,c
  6382                           
  6383                           ; BSR set to: 0
  6384  0012C2  0012               	return		;funcret
  6385  0012C4                     __end_of_I2C1_Stop:
  6386                           	opt callstack 0
  6387                           
  6388 ;; *************** function _I2C1_FunctionComplete *****************
  6389 ;; Defined at:
  6390 ;;		line 565 in file "mcc_generated_files/i2c1.c"
  6391 ;; Parameters:    Size  Location     Type
  6392 ;;		None
  6393 ;; Auto vars:     Size  Location     Type
  6394 ;;		None
  6395 ;; Return value:  Size  Location     Type
  6396 ;;                  1    wreg      void 
  6397 ;; Registers used:
  6398 ;;		wreg, status,2, status,0
  6399 ;; Tracked objects:
  6400 ;;		On entry : 0/0
  6401 ;;		On exit  : 0/0
  6402 ;;		Unchanged: 0/0
  6403 ;; Data sizes:     COMRAM   BANK0   BANK1   BANK2   BANK3   BANK4   BANK5
  6404 ;;      Params:         0       0       0       0       0       0       0
  6405 ;;      Locals:         0       0       0       0       0       0       0
  6406 ;;      Temps:          0       0       0       0       0       0       0
  6407 ;;      Totals:         0       0       0       0       0       0       0
  6408 ;;Total ram usage:        0 bytes
  6409 ;; Hardware stack levels used:    1
  6410 ;; This function calls:
  6411 ;;		Nothing
  6412 ;; This function is called by:
  6413 ;;		_I2C1_ISR
  6414 ;; This function uses a non-reentrant model
  6415 ;;
  6416                           
  6417                           	psect	text38
  6418  001420                     __ptext38:
  6419                           	opt callstack 0
  6420  001420                     _I2C1_FunctionComplete:
  6421                           	opt callstack 18
  6422                           
  6423                           ;mcc_generated_files/i2c1.c: 569:     p_i2c1_trb_current++;
  6424                           
  6425                           ; BSR set to: 0
  6426                           ;incstack = 0
  6427  001420  0E05               	movlw	5
  6428  001422  0100               	movlb	0	; () banked
  6429  001424  2771               	addwf	_p_i2c1_trb_current& (0+255),f,b
  6430  001426  0E00               	movlw	0
  6431  001428  2372               	addwfc	(_p_i2c1_trb_current+1)& (0+255),f,b
  6432                           
  6433                           ; BSR set to: 0
  6434                           ;mcc_generated_files/i2c1.c: 572:     if(--i2c1_trb_count == 0)
  6435  00142A  2E53               	decfsz	_i2c1_trb_count,f,c
  6436  00142C  D003               	goto	i2l2452
  6437                           
  6438                           ; BSR set to: 0
  6439                           ;mcc_generated_files/i2c1.c: 573:     {;mcc_generated_files/i2c1.c: 574:         i2c1_st
      +                          ate = S_MASTER_SEND_STOP;
  6440  00142E  0E04               	movlw	4
  6441  001430  6E54               	movwf	_i2c1_state,c
  6442                           
  6443                           ;mcc_generated_files/i2c1.c: 575:     }
  6444  001432  0012               	return	
  6445  001434                     i2l2452:
  6446                           
  6447                           ; BSR set to: 0
  6448                           ;mcc_generated_files/i2c1.c: 577:     {;mcc_generated_files/i2c1.c: 578:         i2c1_st
      +                          ate = S_MASTER_RESTART;
  6449  001434  0E01               	movlw	1
  6450  001436  6E54               	movwf	_i2c1_state,c
  6451                           
  6452                           ; BSR set to: 0
  6453  001438  0012               	return		;funcret
  6454  00143A                     __end_of_I2C1_FunctionComplete:
  6455                           	opt callstack 0
  6456                           
  6457 ;; *************** function _I2C1_BusCollisionISR *****************
  6458 ;; Defined at:
  6459 ;;		line 742 in file "mcc_generated_files/i2c1.c"
  6460 ;; Parameters:    Size  Location     Type
  6461 ;;		None
  6462 ;; Auto vars:     Size  Location     Type
  6463 ;;		None
  6464 ;; Return value:  Size  Location     Type
  6465 ;;                  1    wreg      void 
  6466 ;; Registers used:
  6467 ;;		None
  6468 ;; Tracked objects:
  6469 ;;		On entry : 0/0
  6470 ;;		On exit  : 0/0
  6471 ;;		Unchanged: 0/0
  6472 ;; Data sizes:     COMRAM   BANK0   BANK1   BANK2   BANK3   BANK4   BANK5
  6473 ;;      Params:         0       0       0       0       0       0       0
  6474 ;;      Locals:         0       0       0       0       0       0       0
  6475 ;;      Temps:          0       0       0       0       0       0       0
  6476 ;;      Totals:         0       0       0       0       0       0       0
  6477 ;;Total ram usage:        0 bytes
  6478 ;; Hardware stack levels used:    1
  6479 ;; This function calls:
  6480 ;;		Nothing
  6481 ;; This function is called by:
  6482 ;;		_INTERRUPT_InterruptManager
  6483 ;; This function uses a non-reentrant model
  6484 ;;
  6485                           
  6486                           	psect	text39
  6487  0014C0                     __ptext39:
  6488                           	opt callstack 0
  6489  0014C0                     _I2C1_BusCollisionISR:
  6490                           	opt callstack 19
  6491                           
  6492                           ;mcc_generated_files/i2c1.c: 745:  PIR2bits.BCL1IF = 0;
  6493                           
  6494                           ; BSR set to: 0
  6495                           ;incstack = 0
  6496  0014C0  96A1               	bcf	4001,3,c	;volatile
  6497  0014C2  0012               	return		;funcret
  6498  0014C4                     __end_of_I2C1_BusCollisionISR:
  6499                           	opt callstack 0
  6500                           
  6501                           	psect	rparam
  6502  0000                     
  6503                           	psect	temp
  6504  000057                     btemp:
  6505                           	opt callstack 0
  6506  000057                     	ds	1
  6507  0000                     int$flags	set	btemp
  6508  0000                     wtemp8	set	btemp+1
  6509  0000                     ttemp5	set	btemp+1
  6510  0000                     ttemp6	set	btemp+4
  6511  0000                     ttemp7	set	btemp+8
  6512                           tosu	equ	0xFFF
  6513                           tosh	equ	0xFFE
  6514                           tosl	equ	0xFFD
  6515                           stkptr	equ	0xFFC
  6516                           pclatu	equ	0xFFB
  6517                           pclath	equ	0xFFA
  6518                           pcl	equ	0xFF9
  6519                           tblptru	equ	0xFF8
  6520                           tblptrh	equ	0xFF7
  6521                           tblptrl	equ	0xFF6
  6522                           tablat	equ	0xFF5
  6523                           prodh	equ	0xFF4
  6524                           prodl	equ	0xFF3
  6525                           indf0	equ	0xFEF
  6526                           postinc0	equ	0xFEE
  6527                           postdec0	equ	0xFED
  6528                           preinc0	equ	0xFEC
  6529                           plusw0	equ	0xFEB
  6530                           fsr0h	equ	0xFEA
  6531                           fsr0l	equ	0xFE9
  6532                           wreg	equ	0xFE8
  6533                           indf1	equ	0xFE7
  6534                           postinc1	equ	0xFE6
  6535                           postdec1	equ	0xFE5
  6536                           preinc1	equ	0xFE4
  6537                           plusw1	equ	0xFE3
  6538                           fsr1h	equ	0xFE2
  6539                           fsr1l	equ	0xFE1
  6540                           bsr	equ	0xFE0
  6541                           indf2	equ	0xFDF
  6542                           postinc2	equ	0xFDE
  6543                           postdec2	equ	0xFDD
  6544                           preinc2	equ	0xFDC
  6545                           plusw2	equ	0xFDB
  6546                           fsr2h	equ	0xFDA
  6547                           fsr2l	equ	0xFD9
  6548                           status	equ	0xFD8


Data Sizes:
    Strings     776
    Constant    0
    Data        0
    BSS         83
    Persistent  6
    Stack       0

Auto Spaces:
    Space          Size  Autos    Used
    COMRAM           94     78      86
    BANK0           160     37      86
    BANK1           256     80     112
    BANK2           256      0       0
    BANK3           256      0       0
    BANK4           256      0       0
    BANK5           256      0       0

Pointer List with Targets:

    i2c1_tr_queue.ptrb_list.pbuffer	PTR unsigned char  size(2) Largest target is 0
		 -> command(BANK0[1]), w_status(BANK0[1]), p_status(BANK0[1]), level(BANK0[1]), 

    i2c1_tr_queue.pTrFlag	PTR enum E5734 size(2) Largest target is 0
		 -> command(BANK0[1]), w_status(BANK0[1]), p_status(BANK0[1]), level(BANK0[1]), 

    i2c1_tr_queue.ptrb_list	PTR struct . size(2) Largest target is 0
		 -> I2C1_MasterRead@trBlock(BANK0[5]), I2C1_MasterWrite@trBlock(BANK0[5]), 

    strlen@s	PTR const unsigned char  size(2) Largest target is 32
		 -> dbuf(BANK1[32]), 

    strlen@a	PTR const unsigned char  size(2) Largest target is 32
		 -> dbuf(BANK1[32]), 

    sprintf@fmt	PTR const unsigned char  size(2) Largest target is 32
		 -> STR_5(CODE[32]), STR_3(CODE[31]), 

    sprintf@s	PTR unsigned char  size(2) Largest target is 80
		 -> statusReport@buffer(BANK1[80]), 

    sprintf@ap	PTR void [1] size(2) Largest target is 2
		 -> ?_sprintf(BANK0[2]), 

    f.buffer	PTR unsigned char  size(2) Largest target is 80
		 -> statusReport@buffer(BANK1[80]), 

    fputs@s	PTR const unsigned char  size(2) Largest target is 32
		 -> dbuf(BANK1[32]), 

    fputs@fp	PTR struct _IO_FILE size(2) Largest target is 7
		 -> sprintf@f(BANK0[6]), 

    S1796_IO_FILE$buffer	PTR unsigned char  size(2) Largest target is 80
		 -> statusReport@buffer(BANK1[80]), 

    fputc@fp.buffer	PTR unsigned char  size(2) Largest target is 80
		 -> statusReport@buffer(BANK1[80]), 

    fputc@fp	PTR struct _IO_FILE size(2) Largest target is 7
		 -> sprintf@f(BANK0[6]), 

    vfprintf@ap	PTR PTR void  size(2) Largest target is 2
		 -> sprintf@ap(BANK0[2]), 

    vfprintf@fp	PTR struct _IO_FILE size(2) Largest target is 7
		 -> sprintf@f(BANK0[6]), 

    vfprintf@fmt	PTR const unsigned char  size(2) Largest target is 32
		 -> STR_5(CODE[32]), STR_3(CODE[31]), 

    vfprintf@cfmt	PTR unsigned char  size(2) Largest target is 32
		 -> STR_5(CODE[32]), STR_3(CODE[31]), 

    vfpfcnvrt@fp	PTR struct _IO_FILE size(2) Largest target is 7
		 -> sprintf@f(BANK0[6]), 

    vfpfcnvrt@ap	PTR PTR void  size(2) Largest target is 2
		 -> sprintf@ap(BANK0[2]), 

    vfpfcnvrt@fmt	PTR PTR unsigned char  size(2) Largest target is 2
		 -> vfprintf@cfmt(BANK0[2]), 

    dtoa@fp	PTR struct _IO_FILE size(2) Largest target is 7
		 -> sprintf@f(BANK0[6]), 

    ctoa@fp	PTR struct _IO_FILE size(2) Largest target is 7
		 -> sprintf@f(BANK0[6]), 

    pad@fp	PTR struct _IO_FILE size(2) Largest target is 7
		 -> sprintf@f(BANK0[6]), 

    pad@buf	PTR unsigned char  size(2) Largest target is 32
		 -> dbuf(BANK1[32]), 

    sendString@str	PTR unsigned char  size(2) Largest target is 82
		 -> STR_42(CODE[20]), STR_41(CODE[16]), STR_40(CODE[15]), STR_39(CODE[22]), 
		 -> STR_38(CODE[22]), STR_37(CODE[22]), STR_36(CODE[22]), STR_35(CODE[22]), 
		 -> STR_34(CODE[22]), STR_33(CODE[22]), STR_32(CODE[22]), STR_31(CODE[22]), 
		 -> STR_30(CODE[22]), STR_29(CODE[22]), STR_28(CODE[22]), STR_27(CODE[22]), 
		 -> STR_26(CODE[22]), STR_25(CODE[22]), STR_24(CODE[22]), STR_23(CODE[22]), 
		 -> STR_22(CODE[22]), STR_21(CODE[22]), STR_20(CODE[22]), STR_19(CODE[17]), 
		 -> STR_18(CODE[17]), STR_17(CODE[33]), STR_16(CODE[82]), STR_15(CODE[10]), 
		 -> STR_14(CODE[33]), STR_13(CODE[37]), STR_12(CODE[37]), STR_11(CODE[53]), 
		 -> STR_10(CODE[32]), STR_9(CODE[31]), STR_8(CODE[10]), STR_7(CODE[48]), 
		 -> STR_6(CODE[10]), STR_4(CODE[10]), statusReport@buffer(BANK1[80]), STR_2(CODE[10]), 
		 -> STR_1(CODE[82]), 

    I2C1_MasterWriteTRBBuild@pdata	PTR unsigned char  size(2) Largest target is 1
		 -> command(BANK0[1]), 

    I2C1_MasterWriteTRBBuild@ptrb.pbuffer	PTR unsigned char  size(2) Largest target is 1
		 -> command(BANK0[1]), w_status(BANK0[1]), p_status(BANK0[1]), level(BANK0[1]), 

    I2C1_MasterWriteTRBBuild@ptrb	PTR struct . size(2) Largest target is 6
		 -> I2C1_MasterWrite@trBlock(BANK0[5]), 

    I2C1_MasterReadTRBBuild@pdata	PTR unsigned char  size(2) Largest target is 1
		 -> level(BANK0[1]), 

    I2C1_MasterReadTRBBuild@ptrb.pbuffer	PTR unsigned char  size(2) Largest target is 1
		 -> command(BANK0[1]), w_status(BANK0[1]), p_status(BANK0[1]), level(BANK0[1]), 

    I2C1_MasterReadTRBBuild@ptrb	PTR struct . size(2) Largest target is 6
		 -> I2C1_MasterRead@trBlock(BANK0[5]), 

    i2c1_object.pTrTail.ptrb_list.pbuffer	PTR unsigned char  size(2) Largest target is 1
		 -> command(BANK0[1]), w_status(BANK0[1]), p_status(BANK0[1]), level(BANK0[1]), 

    i2c1_object.pTrTail.pTrFlag	PTR enum E5734 size(2) Largest target is 1
		 -> command(BANK0[1]), w_status(BANK0[1]), p_status(BANK0[1]), level(BANK0[1]), 

    i2c1_object.pTrTail.ptrb_list	PTR struct . size(2) Largest target is 6
		 -> I2C1_MasterRead@trBlock(BANK0[5]), I2C1_MasterWrite@trBlock(BANK0[5]), 

    I2C1_MasterTRBInsert@ptrb_list	PTR struct . size(2) Largest target is 6
		 -> I2C1_MasterRead@trBlock(BANK0[5]), I2C1_MasterWrite@trBlock(BANK0[5]), 

    I2C1_MasterTRBInsert@pflag	PTR enum E5734 size(2) Largest target is 1
		 -> w_status(BANK0[1]), p_status(BANK0[1]), 

    I2C1_MasterRead@pflag	PTR enum E5734 size(2) Largest target is 1
		 -> p_status(BANK0[1]), 

    I2C1_MasterRead@pdata	PTR unsigned char  size(2) Largest target is 1
		 -> level(BANK0[1]), 

    F5845.pbuffer	PTR unsigned char  size(2) Largest target is 1
		 -> command(BANK0[1]), w_status(BANK0[1]), p_status(BANK0[1]), level(BANK0[1]), 

    I2C1_MasterWrite@pflag	PTR enum E5734 size(2) Largest target is 1
		 -> w_status(BANK0[1]), 

    I2C1_MasterWrite@pdata	PTR unsigned char  size(2) Largest target is 1
		 -> command(BANK0[1]), 

    F5839.pbuffer	PTR unsigned char  size(2) Largest target is 1
		 -> command(BANK0[1]), w_status(BANK0[1]), p_status(BANK0[1]), level(BANK0[1]), 

    I2C1_ISR@pi2c_buf_ptr	PTR unsigned char  size(2) Largest target is 1
		 -> command(BANK0[1]), w_status(BANK0[1]), p_status(BANK0[1]), level(BANK0[1]), 
		 -> NULL(NULL[0]), 

    p_i2c1_trb_current.pbuffer	PTR unsigned char  size(2) Largest target is 1
		 -> command(BANK0[1]), w_status(BANK0[1]), p_status(BANK0[1]), level(BANK0[1]), 

    p_i2c1_trb_current	PTR struct . size(2) Largest target is 6
		 -> I2C1_MasterRead@trBlock(BANK0[5]), I2C1_MasterWrite@trBlock(BANK0[5]), NULL(NULL[0]), 

    i2c1_object.pTrHead.pTrFlag	PTR enum E5734 size(2) Largest target is 1
		 -> command(BANK0[1]), w_status(BANK0[1]), p_status(BANK0[1]), level(BANK0[1]), 

    i2c1_object.pTrHead.ptrb_list	PTR struct . size(2) Largest target is 6
		 -> I2C1_MasterRead@trBlock(BANK0[5]), I2C1_MasterWrite@trBlock(BANK0[5]), 

    S686$pbuffer	PTR unsigned char  size(2) Largest target is 1
		 -> command(BANK0[1]), w_status(BANK0[1]), p_status(BANK0[1]), level(BANK0[1]), 

    p_i2c1_current.pbuffer	PTR unsigned char  size(2) Largest target is 1
		 -> command(BANK0[1]), w_status(BANK0[1]), p_status(BANK0[1]), level(BANK0[1]), 

    S698$pTrFlag	PTR enum E5734 size(2) Largest target is 1
		 -> command(BANK0[1]), w_status(BANK0[1]), p_status(BANK0[1]), level(BANK0[1]), 

    p_i2c1_current.pTrFlag	PTR enum E5734 size(2) Largest target is 1
		 -> command(BANK0[1]), w_status(BANK0[1]), p_status(BANK0[1]), level(BANK0[1]), 

    S698$ptrb_list	PTR struct . size(2) Largest target is 6
		 -> I2C1_MasterRead@trBlock(BANK0[5]), I2C1_MasterWrite@trBlock(BANK0[5]), 

    p_i2c1_current.ptrb_list	PTR struct . size(2) Largest target is 6
		 -> I2C1_MasterRead@trBlock(BANK0[5]), I2C1_MasterWrite@trBlock(BANK0[5]), 

    p_i2c1_current	PTR volatile struct . size(2) Largest target is 7
		 -> i2c1_tr_queue(BANK0[5]), NULL(NULL[0]), 

    S709$pTrHead	PTR struct . size(2) Largest target is 7
		 -> i2c1_tr_queue(BANK0[5]), 

    i2c1_object.pTrHead	PTR struct . size(2) Largest target is 7
		 -> i2c1_tr_queue(BANK0[5]), 

    S709$pTrTail	PTR struct . size(2) Largest target is 7
		 -> i2c1_tr_queue(BANK0[5]), 

    i2c1_object.pTrTail	PTR struct . size(2) Largest target is 7
		 -> i2c1_tr_queue(BANK0[5]), 

    EUSART1_SetErrorHandler@interruptHandler	PTR FTN()void  size(2) Largest target is 1
		 -> EUSART1_DefaultErrorHandler(), 

    EUSART1_ErrorHandler	PTR FTN()void  size(2) Largest target is 1
		 -> Absolute function(), EUSART1_DefaultErrorHandler(), 

    EUSART1_SetOverrunErrorHandler@interruptHandler	PTR FTN()void  size(2) Largest target is 1
		 -> EUSART1_DefaultOverrunErrorHandler(), 

    EUSART1_OverrunErrorHandler	PTR FTN()void  size(2) Largest target is 1
		 -> Absolute function(), EUSART1_DefaultOverrunErrorHandler(), 

    EUSART1_SetFramingErrorHandler@interruptHandler	PTR FTN()void  size(2) Largest target is 1
		 -> EUSART1_DefaultFramingErrorHandler(), 

    EUSART1_FramingErrorHandler	PTR FTN()void  size(2) Largest target is 1
		 -> Absolute function(), EUSART1_DefaultFramingErrorHandler(), 


Critical Paths under _main in COMRAM

    _vfprintf->_vfpfcnvrt
    _vfpfcnvrt->_dtoa
    _dtoa->_pad
    _abs->___aomod
    _ctoa->_pad
    _pad->_fputs
    _fputs->_fputc
    _fputc->_putch
    _putch->_EUSART1_Write
    _sendString->_EUSART1_Write
    _EUSART1_Initialize->_EUSART1_SetErrorHandler
    _EUSART1_Initialize->_EUSART1_SetFramingErrorHandler
    _EUSART1_Initialize->_EUSART1_SetOverrunErrorHandler
    _I2C1_MasterWrite->_I2C1_MasterWriteTRBBuild
    _I2C1_MasterRead->_I2C1_MasterReadTRBBuild

Critical Paths under _INTERRUPT_InterruptManager in COMRAM

    _INTERRUPT_InterruptManager->_I2C1_ISR
    _I2C1_ISR->_I2C1_Stop

Critical Paths under _main in BANK0

    _statusReport->_sprintf
    _sprintf->_vfprintf
    _vfprintf->_vfpfcnvrt

Critical Paths under _INTERRUPT_InterruptManager in BANK0

    None.

Critical Paths under _main in BANK1

    _main->_statusReport

Critical Paths under _INTERRUPT_InterruptManager in BANK1

    None.

Critical Paths under _main in BANK2

    None.

Critical Paths under _INTERRUPT_InterruptManager in BANK2

    None.

Critical Paths under _main in BANK3

    None.

Critical Paths under _INTERRUPT_InterruptManager in BANK3

    None.

Critical Paths under _main in BANK4

    None.

Critical Paths under _INTERRUPT_InterruptManager in BANK4

    None.

Critical Paths under _main in BANK5

    None.

Critical Paths under _INTERRUPT_InterruptManager in BANK5

    None.

Call Graph Tables:

 ---------------------------------------------------------------------------------
 (Depth) Function   	        Calls       Base Space   Used Autos Params    Refs
 ---------------------------------------------------------------------------------
 (0) _main                                                 2     2      0   26770
                                             35 BANK0      2     2      0
                       _EUSART1_Read
                _EUSART1_is_rx_ready
                    _I2C1_MasterRead
                   _I2C1_MasterWrite
                               _SRAM
                  _SYSTEM_Initialize
                         _sendString
                       _statusReport
 ---------------------------------------------------------------------------------
 (1) _statusReport                                        80    80      0   17334
                                              0 BANK1     80    80      0
                         _sendString
                            _sprintf
 ---------------------------------------------------------------------------------
 (2) _sprintf                                             16    10      6   13316
                                             19 BANK0     16    10      6
                           _vfprintf
 ---------------------------------------------------------------------------------
 (3) _vfprintf                                             8     2      6   12644
                                             11 BANK0      8     2      6
                          _vfpfcnvrt
 ---------------------------------------------------------------------------------
 (4) _vfpfcnvrt                                           42    36      6   12162
                                             72 COMRAM     6     0      6
                                              0 BANK0     11    11      0
                               _ctoa
                               _dtoa
                              _fputc
 ---------------------------------------------------------------------------------
 (5) _dtoa                                                36    26     10    6077
                                             36 COMRAM    36    26     10
                            ___aodiv
                            ___aomod
                                _abs
                                _pad
 ---------------------------------------------------------------------------------
 (6) _abs                                                  4     2      2     183
                                             25 COMRAM     4     2      2
                            ___aomod (ARG)
 ---------------------------------------------------------------------------------
 (6) ___aomod                                             18     2     16     613
                                              7 COMRAM    18     2     16
 ---------------------------------------------------------------------------------
 (6) ___aodiv                                             26    10     16     625
                                              7 COMRAM    26    10     16
 ---------------------------------------------------------------------------------
 (5) _ctoa                                                 7     4      3    4090
                                             36 COMRAM     5     2      3
                                _pad
 ---------------------------------------------------------------------------------
 (6) _pad                                                 11     5      6    3811
                                             25 COMRAM    11     5      6
                              _fputc
                              _fputs
                             _strlen
 ---------------------------------------------------------------------------------
 (7) _strlen                                               4     2      2     220
                                              7 COMRAM     4     2      2
 ---------------------------------------------------------------------------------
 (7) _fputs                                                7     3      4    1599
                                             18 COMRAM     7     3      4
                              _fputc
 ---------------------------------------------------------------------------------
 (5) _fputc                                                9     5      4    1099
                                              9 COMRAM     9     5      4
                              _putch
 ---------------------------------------------------------------------------------
 (6) _putch                                                1     1      0      62
                                              8 COMRAM     1     1      0
                      _EUSART1_Write
 ---------------------------------------------------------------------------------
 (2) _sendString                                           2     0      2    3876
                                              8 COMRAM     2     0      2
                      _EUSART1_Write
 ---------------------------------------------------------------------------------
 (7) _EUSART1_Write                                        1     1      0      31
                                              7 COMRAM     1     1      0
 ---------------------------------------------------------------------------------
 (1) _SYSTEM_Initialize                                    0     0      0     294
                 _EUSART1_Initialize
                    _I2C1_Initialize
               _INTERRUPT_Initialize
              _OSCILLATOR_Initialize
             _PIN_MANAGER_Initialize
 ---------------------------------------------------------------------------------
 (2) _PIN_MANAGER_Initialize                               0     0      0       0
 ---------------------------------------------------------------------------------
 (2) _OSCILLATOR_Initialize                                0     0      0       0
 ---------------------------------------------------------------------------------
 (2) _INTERRUPT_Initialize                                 0     0      0       0
 ---------------------------------------------------------------------------------
 (2) _I2C1_Initialize                                      0     0      0       0
 ---------------------------------------------------------------------------------
 (2) _EUSART1_Initialize                                   0     0      0     294
            _EUSART1_SetErrorHandler
     _EUSART1_SetFramingErrorHandler
     _EUSART1_SetOverrunErrorHandler
 ---------------------------------------------------------------------------------
 (3) _EUSART1_SetOverrunErrorHandler                       2     0      2      98
                                              7 COMRAM     2     0      2
 ---------------------------------------------------------------------------------
 (3) _EUSART1_SetFramingErrorHandler                       2     0      2      98
                                              7 COMRAM     2     0      2
 ---------------------------------------------------------------------------------
 (3) _EUSART1_SetErrorHandler                              2     0      2      98
                                              7 COMRAM     2     0      2
 ---------------------------------------------------------------------------------
 (1) _SRAM                                                 4     1      3    2368
                                              7 COMRAM     4     1      3
 ---------------------------------------------------------------------------------
 (1) _I2C1_MasterWrite                                     7     0      7    1590
                                             16 COMRAM     7     0      7
               _I2C1_MasterTRBInsert
           _I2C1_MasterWriteTRBBuild
 ---------------------------------------------------------------------------------
 (2) _I2C1_MasterWriteTRBBuild                             9     2      7     436
                                              7 COMRAM     9     2      7
 ---------------------------------------------------------------------------------
 (1) _I2C1_MasterRead                                      7     0      7    1308
                                             16 COMRAM     7     0      7
            _I2C1_MasterReadTRBBuild
               _I2C1_MasterTRBInsert
 ---------------------------------------------------------------------------------
 (2) _I2C1_MasterTRBInsert                                 6     2      4     436
                                              7 COMRAM     6     2      4
   _I2C1_WaitForLastPacketToComplete
 ---------------------------------------------------------------------------------
 (3) _I2C1_WaitForLastPacketToComplete                     0     0      0       0
 ---------------------------------------------------------------------------------
 (2) _I2C1_MasterReadTRBBuild                              9     2      7     458
                                              7 COMRAM     9     2      7
 ---------------------------------------------------------------------------------
 (1) _EUSART1_is_rx_ready                                  0     0      0       0
 ---------------------------------------------------------------------------------
 (1) _EUSART1_Read                                         0     0      0       0
 ---------------------------------------------------------------------------------
 Estimated maximum stack depth 7
 ---------------------------------------------------------------------------------
 (Depth) Function   	        Calls       Base Space   Used Autos Params    Refs
 ---------------------------------------------------------------------------------
 (11) _INTERRUPT_InterruptManager                          2     2      0      22
                                              5 COMRAM     2     2      0
               _I2C1_BusCollisionISR
                           _I2C1_ISR
 ---------------------------------------------------------------------------------
 (12) _I2C1_ISR                                            2     2      0      22
                                              3 COMRAM     2     2      0
              _I2C1_FunctionComplete
                          _I2C1_Stop
 ---------------------------------------------------------------------------------
 (13) _I2C1_Stop                                           3     3      0      22
                                              0 COMRAM     3     3      0
 ---------------------------------------------------------------------------------
 (13) _I2C1_FunctionComplete                               0     0      0       0
 ---------------------------------------------------------------------------------
 (12) _I2C1_BusCollisionISR                                0     0      0       0
 ---------------------------------------------------------------------------------
 Estimated maximum stack depth 13
 ---------------------------------------------------------------------------------

 Call Graph Graphs:

 _main (ROOT)
   _EUSART1_Read
   _EUSART1_is_rx_ready
   _I2C1_MasterRead
     _I2C1_MasterReadTRBBuild
     _I2C1_MasterTRBInsert
       _I2C1_WaitForLastPacketToComplete
   _I2C1_MasterWrite
     _I2C1_MasterTRBInsert
       _I2C1_WaitForLastPacketToComplete
     _I2C1_MasterWriteTRBBuild
   _SRAM
   _SYSTEM_Initialize
     _EUSART1_Initialize
       _EUSART1_SetErrorHandler
       _EUSART1_SetFramingErrorHandler
       _EUSART1_SetOverrunErrorHandler
     _I2C1_Initialize
     _INTERRUPT_Initialize
     _OSCILLATOR_Initialize
     _PIN_MANAGER_Initialize
   _sendString
     _EUSART1_Write
   _statusReport
     _sendString
       _EUSART1_Write
     _sprintf
       _vfprintf
         _vfpfcnvrt
           _ctoa
             _pad
               _fputc
                 _putch
                   _EUSART1_Write
               _fputs
                 _fputc
                   _putch
                     _EUSART1_Write
               _strlen
           _dtoa
             ___aodiv
             ___aomod
             _abs
               ___aomod (ARG)
             _pad
               _fputc
                 _putch
                   _EUSART1_Write
               _fputs
                 _fputc
                   _putch
                     _EUSART1_Write
               _strlen
           _fputc
             _putch
               _EUSART1_Write

 _INTERRUPT_InterruptManager (ROOT)
   _I2C1_BusCollisionISR
   _I2C1_ISR
     _I2C1_FunctionComplete
     _I2C1_Stop

 Address spaces:
Name               Size   Autos  Total    Cost      Usage
BIGRAM             5FF      0       0      16        0.0%
EEDATA             100      0       0       0        0.0%
BITBANK5           100      0       0      14        0.0%
BANK5              100      0       0      15        0.0%
BITBANK4           100      0       0      12        0.0%
BANK4              100      0       0      13        0.0%
BITBANK3           100      0       0      10        0.0%
BANK3              100      0       0      11        0.0%
BITBANK2           100      0       0       7        0.0%
BANK2              100      0       0       8        0.0%
BITBANK1           100      0       0       5        0.0%
BANK1              100     50      70       6       43.8%
BITBANK0            A0      0       0       3        0.0%
BANK0               A0     25      56       4       53.8%
BITCOMRAM           5E      0       0       0        0.0%
COMRAM              5E     4E      56       1       91.5%
BITSFR_1             0      0       0     200        0.0%
SFR_1                0      0       0     200        0.0%
BITSFR               0      0       0     200        0.0%
SFR                  0      0       0     200        0.0%
STACK                0      0       0       2        0.0%
NULL                 0      0       0       0        0.0%
ABS                  0      0     11C       9        0.0%
DATA                 0      0     11C      17        0.0%
CODE                 0      0       0       0        0.0%


Microchip Technology PIC18 Macro Assembler V2.05 build -831301201 
Symbol Table                                                                                   Fri May 10 11:33:56 2019

                                             _x 0073                                    __CFG_CP0$OFF 000000  
                                  __CFG_CP1$OFF 000000                                    __CFG_CP2$OFF 000000  
                                  __CFG_CP3$OFF 000000                                     __CFG_LVP$ON 000000  
                         __size_of_statusReport 00FA                                             l401 132E  
                                           l444 03E8                                             l383 130A  
                                           l395 1322                                             l389 1316  
                                           l479 0F66                                             l497 06DC  
                                           l499 06E4                                    __CFG_CPB$OFF 000000  
                                  __CFG_CPD$OFF 000000                                             _abs 1398  
                                           _dis 0075                                             _pad 0F38  
                                           wreg 000FE8                                      _TXSTA1bits 000FAC  
                              __end_of_I2C1_ISR 0668                                            l1210 13C0  
                                          ?_abs 001A                                            l3020 0AE8  
                                          l3014 0AC0                                            l3120 06FE  
                                          l3026 0B0E                                            l3042 0B94  
                                          l3106 06BE                                            l3028 0B22  
                                          l3124 070E                                            l3204 0A60  
                                          l3222 1078                                            l3046 0BBA  
                                          l3038 0B7E                                            l3062 0C2C  
                                          l3134 0806                                            l3302 012E  
                                          l3216 0FE2                                            l3226 10A0  
                                          l3090 10DC                                            l3082 0CDE  
                                          l3074 0CA2                                            l3066 0C46  
                                          l3058 0C08                                            l3154 086A  
                                          l3218 1008                                            l3410 0360  
                                          l3314 016C                                            l3092 10E8  
                                          l3068 0C5A                                            l3078 0CB8  
                                          l3158 0882                                            l3422 039E  
                                          l3350 0226                                            l3326 01AA  
                                          l2528 1462                                            l2480 0F14  
                                          l3272 0084                                            l2482 0F20  
                                          l3194 0A3E                                            l3178 0950  
                                          l3434 03CE                                            l3362 0264  
                                          l3338 01E8                                            l3442 0408  
                                          l3266 0070                                            l2476 0F00  
                                          l3188 0A02                                            l3428 03B6  
                                          l3276 00A8                                            l3198 0A48  
                                          l3374 02A4                                            l3286 00EA  
                                          l3296 0116                                            l2690 11F2  
                                          l3386 02E4                                            l2684 11A6  
                                          l2694 130C                                            l2942 1476  
                                          l3398 0322                                            ?_pad 001A  
                                          l2696 1318                                            l2698 1324  
                                          l2954 0E12                                            l2964 12CE  
                                          l2972 1400                                            l2974 1404  
                                          l2990 0F70                                            l2968 12E4  
                                          l2984 0F50                                            l2994 0F88  
                                          l2988 0F5E                                            l2998 0FB4  
                                          STR_1 7CF7                                            STR_2 7D3F  
                                          STR_3 7E99                                            STR_4 7D3F  
                                          STR_5 7E5A                                            STR_6 7D3F  
                                          STR_7 7D7E                                            STR_8 7D3F  
                                          STR_9 7E7A                                            u2110 0E52  
                                          u2211 0AEE                                            _LATA 000F89  
                                          u2230 0B26                                            _LATB 000F8A  
                                          _LATC 000F8B                                            u2400 0814  
                                          u1610 1488                                            u2090 0E0A  
                                          u2330 0690                                            u2180 13A6  
                                          u2420 0836                                            u2340 0692  
                                          u2421 0834                                            u2430 0844  
                                          u2510 0984                                            u2440 0848  
                                          u2290 0C5E                                            u2370 06D2  
                                          u2540 1098                                            u2460 0854  
                                          u2550 10C0                                            u2390 06F8  
                                          u2547 108E                                            u2557 10B6  
                                          u2767 0050                                            u2777 0410  
                                          _SRAM 12FC                                            _WPUB 000F61  
               __end_of_I2C1_MasterReadTRBBuild 1168                                   _EUSART1_Write 1474  
                                          abs@a 001A                                            _dbuf 0150  
                                          _ctoa 10C8                                            _main 003C  
                                          _dtoa 0668                                   ?_EUSART1_Read 0001  
                                          _prec 006B                                            _nout 0067  
                                          pad@i 0021                                            pad@p 001E  
                                          fsr1h 000FE2                                            fsr2h 000FDA  
                                          indf1 000FE7                                            indf2 000FDF  
                                          fsr1l 000FE1                                            pad@w 0023  
                                          fsr2l 000FD9                          ??_I2C1_MasterTRBInsert 000C  
                                          btemp 0057                                   __CFG_BORV$190 000000  
                                          start 0038                                   __CFG_IESO$OFF 000000  
                                  ___param_bank 000000                                    _statusReport 0D00  
                I2C1_MasterWriteTRBBuild@length 000C                                           ??_abs 001C  
                                         ??_pad 0020                                      _i2c1_state 0054  
                                         ?_SRAM 0008                  __size_of_OSCILLATOR_Initialize 000E  
                     I2C1_MasterTRBInsert@count 000D                   __end_of_OSCILLATOR_Initialize 1474  
                     I2C1_MasterTRBInsert@pflag 000A                                           SRAM@a 000B  
                                         SRAM@b 0008                                           SRAM@c 0009  
                                         SRAM@d 000A                                 __end_of___aodiv 0BDC  
                                         ?_ctoa 0025                                           ?_main 0001  
                                         ?_dtoa 0025                                 __end_of___aomod 0D00  
                             __end_of_I2C1_Stop 12C4                                           STR_10 7E3A  
                                         STR_11 7D49                                           STR_20 7F94  
                                         STR_12 7DD3                                           STR_21 7EB8  
                                         STR_13 7DAE                                           STR_30 7F94  
                                         STR_22 7F94                                           STR_14 7DF8  
                                         STR_15 7D3F                                           STR_31 7F26  
                                         STR_23 7ECE                                           STR_16 7CF7  
                                         STR_32 7F94                                           STR_24 7F94  
                                         STR_40 7FF0                                           STR_41 7FE0  
                                         STR_33 7F3C                                           STR_25 7EE4  
                                         STR_17 7E19                                           STR_34 7F94  
                                         STR_26 7F94                                           STR_18 7FCF  
                                         STR_42 7FAA                                           STR_19 7FBE  
                                         STR_35 7F52                                           STR_27 7EFA  
                                         STR_36 7F94                                           STR_28 7F94  
                                         STR_37 7F68                                           STR_29 7F10  
                                         STR_38 7F94                                           STR_39 7F7E  
                                __CFG_DEBUG$OFF 000000                                           i2l240 0454  
                                         i2l251 04E6                                           i2l243 04B0  
                                         i2l171 0022                                           i2l252 04F6  
                                         i2l172 002C                                           i2l270 05C4  
                                         i2l262 056A                                           i2l246 04B8  
                                         i2l256 055C                                           i2l274 05F6  
                                         i2l266 059A                                           i2l269 05B2  
                                  vfpfcnvrt@fmt 004B                                           _TRISA 000F92  
                                         _TRISB 000F93                                           _TRISC 000F94  
                  __end_of_I2C1_BusCollisionISR 14C4                                   __CFG_WRT0$OFF 000000  
                                 __CFG_WRT1$OFF 000000                                   __CFG_WRT2$OFF 000000  
                                 __CFG_WRT3$OFF 000000                               ??_I2C1_MasterRead 0018  
                                __CFG_EBTR0$OFF 000000                                  __CFG_FCMEN$OFF 000000  
                                __CFG_EBTR1$OFF 000000                                  __CFG_EBTR2$OFF 000000  
                                __CFG_EBTR3$OFF 000000                               ??_I2C1_Initialize 0008  
                                 __CFG_WRTB$OFF 000000                                   __CFG_WRTC$OFF 000000  
                                 __CFG_WRTD$OFF 000000                                  __CFG_EBTRB$OFF 000000  
                                         _flags 004F                                           _level 0087  
                                         _fputc 0DFA                                           _fputs 12C4  
                            __CFG_MCLRE$EXTMCLR 000000                                           pad@fp 001A  
                                         _width 0069                                           ctoa@c 0027  
                                         _putch 148C                                           ctoa@w 0028  
                                         dtoa@d 0027                                           dtoa@i 0047  
                                         dtoa@n 003F                                           dtoa@p 0039  
                                         dtoa@s 003D                                           dtoa@w 003B  
                                ?_EUSART1_Write 0001                                           tablat 000FF5  
                                ??_EUSART1_Read 0008                                           plusw2 000FDB  
                                         ttemp5 0058                                           ttemp6 005B  
                                         ttemp7 005F                                           status 000FD8  
                                         wtemp8 0058                                 __end_of_sprintf 1076  
                                __CFG_HFOFST$ON 000000              _EUSART1_DefaultFramingErrorHandler 000000  
                                __CFG_PBADEN$ON 000000                 I2C1_MasterWriteTRBBuild@address 000D  
                                  __end_of_SRAM 1332                                 __initialization 1366  
                         I2C1_MasterWrite@pdata 0011                           I2C1_MasterWrite@pflag 0016  
                                  __end_of_ctoa 1118                      __end_of_EUSART1_Initialize 1284  
                                  __end_of_main 041C                                    __end_of_dtoa 08AC  
                                        ??_SRAM 000B                     ?_INTERRUPT_InterruptManager 0001  
                                   _i2c1_object 0060                                          ??_ctoa 0028  
                                        ??_main 00AE                                          ??_dtoa 002F  
                                 __activetblptr 000002                                          ?_fputc 000A  
                                        ?_fputs 0013                                          _ANSELA 000F38  
                                        ?_putch 0001                                          _ANSELB 000F39  
                                        _ANSELC 000F3A                    __size_of_EUSART1_is_rx_ready 000C  
                                        i2l2452 1434                                          i2l2444 12BE  
                                __CFG_WDTEN$OFF 000000                                          i2l2626 057C  
                                        i2l2570 04B2                                          i2l2652 05D4  
                                        i2l2636 059E                                          i2l2566 04A0  
                                        i2l2664 05FC                                          i2l2648 05CC  
                                        i2l2584 04E0                                          i2l2666 0600  
                                        i2l2578 04C8                                          i2l2674 0614  
                                        i2l2668 0608                                          i2l2598 0520  
                                        _RCREG1 000FAE                                          _RCSTA1 000FAB  
                                        _OSCCON 000FD3                                          _SPBRG1 000FAF  
                                        _TXREG1 000FAD                                          _TXSTA1 000FAC  
                             ?_I2C1_MasterWrite 0011                                  __CFG_XINST$OFF 000000  
                            ??_I2C1_MasterWrite 0018                                    vfprintf@cfmt 009C  
                                _p_i2c1_current 006F                                       ??___aodiv 0018  
                                     ??___aomod 0018                                  __CFG_STVREN$ON 000000  
                      ?_EUSART1_SetErrorHandler 0008                      ??_I2C1_MasterWriteTRBBuild 000F  
                                        _length 0076                                       ?_I2C1_ISR 0001  
                                        clear_0 136C                                          clear_1 1378  
                                        clear_2 1384                                          pad@buf 001C  
              ??_EUSART1_SetOverrunErrorHandler 000A                 ?_EUSART1_SetOverrunErrorHandler 0008  
                                        ctoa@fp 0025                                          _userIn 0074  
                                        dtoa@fp 0025                                          _strlen 13F6  
              __size_of_I2C1_MasterReadTRBBuild 0050                                          fputc@c 000A  
                                        fputs@c 0017                                          fputs@i 0018  
                                        fputs@s 0013                                    __mediumconst 7CF6  
                                        tblptrh 000FF7                                          tblptrl 000FF6  
                                        tblptru 000FF8                                __end_of_vfprintf 1024  
                               ??_EUSART1_Write 0008                                       ??_sprintf 004F  
                 I2C1_MasterWriteTRBBuild@pdata 000A                   __size_of_INTERRUPT_Initialize 0004  
                             _SYSTEM_Initialize 143A                                      __accesstop 0060  
                       __end_of__initialization 138A                              ?_SYSTEM_Initialize 0001  
                                 ___rparam_used 000001                                  _i2c1_trb_count 0053  
                         _I2C1_FunctionComplete 1420                            _I2C1_BusCollisionISR 14C0  
                                __pcstackCOMRAM 0001                          I2C1_MasterWrite@length 0013  
                           ??_SYSTEM_Initialize 000A                                   __end_of_fputc 0E9A  
                                 __end_of_fputs 12FC                                   __end_of_putch 1496  
                                    ??_I2C1_ISR 0004                  I2C1_MasterReadTRBBuild@address 000D  
                          __end_of_EUSART1_Read 1466                                         ??_fputc 000E  
                     __end_of_SYSTEM_Initialize 1450                                         ??_fputs 0017  
                                       ??_putch 0009                                      __pbssBANK0 0060  
                                    __pbssBANK1 0150                                 __CFG_PLLCFG$OFF 000000  
                         ?_I2C1_BusCollisionISR 0001                 __end_of_EUSART1_SetErrorHandler 14B4  
                            __CFG_CCP2MX$PORTC1 000000                              __CFG_CCP3MX$PORTB5 000000  
                               _I2C1_MasterRead 11B4                                 _I2C1_Initialize 1332  
                                       ?_strlen 0008          __end_of_EUSART1_SetFramingErrorHandler 14AA  
       __size_of_EUSART1_SetFramingErrorHandler 000A                  _EUSART1_SetFramingErrorHandler 14A0  
                                       _OSCCON2 000FD2                              __size_of_vfpfcnvrt 01E8  
                                     _I2C1_Stop 1284                                         _OSCTUNE 000F9B  
                                       _SPBRGH1 000FB0                                         _SSP1ADD 000FC8  
                                       _SSP1BUF 000FC9                   I2C1_MasterTRBInsert@ptrb_list 0008  
                               __CFG_PWRTEN$OFF 000000                          ?_I2C1_FunctionComplete 0001  
                                       __Hparam 0000                   __size_of_I2C1_MasterTRBInsert 009E  
                                       __Lparam 0000                              _p_i2c1_trb_current 0071  
                                       ___aodiv 0A94                                         ___aomod 0BDC  
                                     ?_vfprintf 0096                             _EUSART1_is_rx_ready 1480  
                                       __pcinit 1366                                         __ramtop 0600  
                       _I2C1_MasterReadTRBBuild 1118                                         __ptext0 003C  
                                       __ptext1 0D00                                         __ptext2 1024  
                                       __ptext3 0FCE                                         __ptext4 08AC  
                                       __ptext5 0668                                         __ptext6 1398  
                                       __ptext7 0BDC                                         __ptext8 0A94  
                                       __ptext9 10C8                                         _command 0088  
                               __size_of_strlen 002A                           _OSCILLATOR_Initialize 1466  
                                  __size_of_abs 0032                                    __size_of_pad 0096  
                  I2C1_MasterReadTRBBuild@pdata 000A                            I2C1_MasterRead@pdata 0011  
                          I2C1_MasterRead@pflag 0016                              _EUSART1_Initialize 1244  
                      ??_PIN_MANAGER_Initialize 0008                                      ?_I2C1_Stop 0001  
                    __size_of_SYSTEM_Initialize 0016                                         _sprintf 1024  
                          I2C1_ISR@pi2c_buf_ptr 006D                            end_of_initialization 138A  
                          ?_EUSART1_is_rx_ready 0001                             ?_EUSART1_Initialize 0001  
                                    _sendString 1076                                         fputc@fp 000C  
                                 __Lmediumconst 7CF6                     _EUSART1_OverrunErrorHandler 00B2  
                                       fputs@fp 0015                         __end_of_I2C1_MasterRead 1200  
                        ??_I2C1_BusCollisionISR 0001                         __end_of_I2C1_Initialize 1366  
                             __end_of_vfpfcnvrt 0A94                                         postdec2 000FDD  
                                       postinc0 000FEE                                         postinc1 000FE6  
                                       postinc2 000FDE                           __size_of_EUSART1_Read 0016  
                                    ??_vfprintf 004F                            ??_EUSART1_Initialize 000A  
                                       strlen@a 000A                                         strlen@s 0008  
                                 sendString@str 0009                       __size_of_I2C1_MasterWrite 004C  
                             __size_of_I2C1_ISR 024C                __size_of_EUSART1_SetErrorHandler 000A  
                           EUSART1_Write@txData 0008                           ??_EUSART1_is_rx_ready 0008  
             I2C1_ISR@i2c_10bit_address_restart 0051                                    _EUSART1_Read 1450  
                       I2C1_MasterWrite@address 0014                       ??_I2C1_MasterReadTRBBuild 000F  
                  __end_of_INTERRUPT_Initialize 14C0                                     vfpfcnvrt@ap 004D  
                                   vfpfcnvrt@fp 0049                                     vfpfcnvrt@ll 008D  
                       I2C1_MasterWrite@trBlock 007D                        I2C1_Stop@completion_code 0003  
                        ?_OSCILLATOR_Initialize 0001                                  __end_of_strlen 1420  
                           start_initialization 1366                                     ??_I2C1_Stop 0001  
               __size_of_PIN_MANAGER_Initialize 002C                                     __end_of_abs 13CA  
                                   __end_of_pad 0FCE               __size_of_I2C1_MasterWriteTRBBuild 0044  
                                   putch@txData 0009                       ?_I2C1_MasterWriteTRBBuild 0008  
                         __end_of_EUSART1_Write 1480                                     ?_sendString 0009  
                            statusReport@buffer 0100                                ?_I2C1_MasterRead 0011  
                              ?_I2C1_Initialize 0001                                     vfprintf@fmt 0098  
                                 ?_statusReport 0001                                        ??_strlen 000A  
                  I2C1_MasterWriteTRBBuild@ptrb 0008                                     __pbssCOMRAM 004F  
                                 __pcstackBANK0 008B                                   __pcstackBANK1 0100  
                              ___aodiv@dividend 0008                                   _i2c1_tr_queue 0082  
              ??_EUSART1_SetFramingErrorHandler 000A                 ?_EUSART1_SetFramingErrorHandler 0008  
                       ??_I2C1_FunctionComplete 0001                                       __pnvBANK0 00B0  
                        _PIN_MANAGER_Initialize 13CA                                  ??_statusReport 004F  
                                     _dtoa$1335 0037                                       __pintcode 0008  
                                 __pmediumconst 7CF6                                        ?___aodiv 0008  
                                      ?___aomod 0008                                ___aodiv@quotient 001A  
                                      _I2C1_ISR 041C                    ??_INTERRUPT_InterruptManager 0006  
                              __CFG_PRICLKEN$ON 000000                               __size_of_vfprintf 0056  
                              _I2C1_MasterWrite 1168                             __size_of_sendString 0052  
                  __end_of_I2C1_MasterTRBInsert 0F38                                        _BAUDCON1 000FB8  
            _EUSART1_DefaultOverrunErrorHandler 000000                            _EUSART1_ErrorHandler 00B0  
                        I2C1_MasterRead@address 0014                         _EUSART1_SetErrorHandler 14AA  
                                      ?_sprintf 009E                                  __size_of_fputc 00A0  
                                __size_of_fputs 0038                                  __size_of_putch 000A  
                          _INTERRUPT_Initialize 14BC                     I2C1_MasterReadTRBBuild@ptrb 0008  
      __end_of_I2C1_WaitForLastPacketToComplete 14BC       __size_of_I2C1_WaitForLastPacketToComplete 0008  
            ??_I2C1_WaitForLastPacketToComplete 0008               ?_I2C1_WaitForLastPacketToComplete 0001  
              _I2C1_WaitForLastPacketToComplete 14B4                          I2C1_MasterRead@trBlock 0078  
       EUSART1_SetErrorHandler@interruptHandler 0008                                        _LATBbits 000F8A  
                                      _LATCbits 000F8B                                        _PIE1bits 000F9D  
                                      _PIE2bits 000FA0             __size_of_INTERRUPT_InterruptManager 0030  
                                      _PIR1bits 000F9E                                        _PIR2bits 000FA1  
                                      _RCONbits 000FD0                                __CFG_WDTPS$32768 000000  
                                      _SSP1CON1 000FC6                                        _SSP1CON3 000FCB  
                                      _SSP1STAT 000FC7                                       _vfpfcnvrt 08AC  
                                    vfpfcnvrt@c 0095                                     _INTCON2bits 000FF1  
                         ?_INTERRUPT_Initialize 0001                                        __Hrparam 0000  
                 __size_of_I2C1_BusCollisionISR 0004                                      vfprintf@ap 009A  
                                      __Lrparam 0000                                      vfprintf@fp 0096  
                            __CFG_BOREN$SBORDIS 000000                          I2C1_ISR@i2c_bytes_left 0052  
                             __CFG_P2BMX$PORTB5 000000                         ??_OSCILLATOR_Initialize 0008  
                              __size_of___aodiv 0148                                __size_of___aomod 0124  
                   __size_of_EUSART1_Initialize 0040                                      ?_vfpfcnvrt 0049  
              __end_of_I2C1_MasterWriteTRBBuild 1244                                 ___aodiv@divisor 0010  
                               ___aodiv@counter 0018                       ??_EUSART1_SetErrorHandler 000A  
                   _EUSART1_DefaultErrorHandler 000000                                      sprintf@fmt 00A0  
                   __end_of_EUSART1_is_rx_ready 148C                            __end_of_statusReport 0DFA  
                           I2C1_ISR@i2c_address 0055                                        __ptext10 0F38  
                                      __ptext11 13F6                                        __ptext20 14BC  
                                      __ptext12 12C4                                        __ptext21 1332  
                                      __ptext13 0DFA                                        __ptext30 0E9A  
                                      __ptext22 1244                                        __ptext14 148C  
                                      __ptext31 14B4                                        __ptext23 1496  
                                      __ptext15 1076                                        __ptext32 1118  
                                      __ptext24 14A0                                        __ptext16 1474  
                                      __ptext33 1480                                        __ptext25 14AA  
                                      __ptext17 143A                                        __ptext34 1450  
                                      __ptext26 12FC                                        __ptext18 13CA  
                                      __ptext27 1168                                        __ptext19 1466  
                                      __ptext36 041C                                        __ptext28 1200  
                                      __ptext37 1284                                        __ptext29 11B4  
                                      __ptext38 1420                                        __ptext39 14C0  
                                  _SSP1CON1bits 000FC6                                    _SSP1CON2bits 000FC5  
                              __size_of_sprintf 0052                                   __size_of_SRAM 0036  
                                  ??_sendString 000B                                   __size_of_ctoa 0050  
                                 __size_of_main 03E0                                   __size_of_dtoa 0244  
                 I2C1_MasterReadTRBBuild@length 000C                           I2C1_MasterRead@length 0013  
                                      _p_status 0089                            _I2C1_MasterTRBInsert 0E9A  
EUSART1_SetOverrunErrorHandler@interruptHandler 0008                                        int$flags 0057  
                                      _w_status 008A                                        _vfprintf 0FCE  
            __end_of_INTERRUPT_InterruptManager 0038                      _INTERRUPT_InterruptManager 0008  
                   _EUSART1_FramingErrorHandler 00B4                                ___aomod@dividend 0008  
                            __end_of_sendString 10C8                                      _INTCONbits 000FF2  
                        ??_INTERRUPT_Initialize 0008                                        intlevel2 0000  
                                     sprintf@ap 00A6                         ?_PIN_MANAGER_Initialize 0001  
                      __end_of_I2C1_MasterWrite 11B4                  __size_of_I2C1_FunctionComplete 001A  
        __end_of_EUSART1_SetOverrunErrorHandler 14A0         __size_of_EUSART1_SetOverrunErrorHandler 000A  
                _EUSART1_SetOverrunErrorHandler 1496                                      _RCSTA1bits 000FAB  
                 __end_of_I2C1_FunctionComplete 143A                           ?_I2C1_MasterTRBInsert 0008  
                      ?_I2C1_MasterReadTRBBuild 0008  EUSART1_SetFramingErrorHandler@interruptHandler 0008  
                               ___aomod@divisor 0010                                     ??_vfpfcnvrt 008B  
                      __size_of_I2C1_MasterRead 004C                                 ___aomod@counter 0018  
                      __size_of_I2C1_Initialize 0034                          __size_of_EUSART1_Write 000C  
                            _eusart1RxLastError 0077                                        sprintf@f 00A8  
                                      sprintf@s 009E                        _I2C1_MasterWriteTRBBuild 1200  
                             __CFG_T3CMX$PORTC0 000000                                    ___aodiv@sign 0019  
                __end_of_PIN_MANAGER_Initialize 13F6                              __size_of_I2C1_Stop 0040  
                             __CFG_FOSC$INTIO67 000000                                    ___aomod@sign 0019  
